ARM GAS  /tmp/ccyPe1gI.s 			page 1


   1              		.cpu cortex-m3
   2              		.eabi_attribute 20, 1
   3              		.eabi_attribute 21, 1
   4              		.eabi_attribute 23, 3
   5              		.eabi_attribute 24, 1
   6              		.eabi_attribute 25, 1
   7              		.eabi_attribute 26, 1
   8              		.eabi_attribute 30, 1
   9              		.eabi_attribute 34, 1
  10              		.eabi_attribute 18, 4
  11              		.file	"GPIO_program.c"
  12              		.text
  13              		.section	.text.GPIO_enumSETPinMODE,"ax",%progbits
  14              		.align	1
  15              		.global	GPIO_enumSETPinMODE
  16              		.arch armv7-m
  17              		.syntax unified
  18              		.thumb
  19              		.thumb_func
  20              		.fpu softvfp
  22              	GPIO_enumSETPinMODE:
  23              		@ args = 0, pretend = 0, frame = 0
  24              		@ frame_needed = 0, uses_anonymous_args = 0
  25              		@ link register save eliminated.
  26 0000 0028     		cmp	r0, #0
  27 0002 42D0     		beq	.L6
  28 0004 0346     		mov	r3, r0
  29 0006 8078     		ldrb	r0, [r0, #2]	@ zero_extendqisi2
  30 0008 5A78     		ldrb	r2, [r3, #1]	@ zero_extendqisi2
  31 000a 1B78     		ldrb	r3, [r3]	@ zero_extendqisi2
  32 000c 022B     		cmp	r3, #2
  33 000e 3ED8     		bhi	.L7
  34 0010 0F2A     		cmp	r2, #15
  35 0012 3ED8     		bhi	.L8
  36 0014 10B4     		push	{r4}
  37 0016 1828     		cmp	r0, #24
  38 0018 15D0     		beq	.L13
  39 001a 0828     		cmp	r0, #8
  40 001c 1BD0     		beq	.L14
  41              	.L4:
  42 001e 072A     		cmp	r2, #7
  43 0020 20D8     		bhi	.L5
  44 0022 1D49     		ldr	r1, .L15
  45 0024 51F82330 		ldr	r3, [r1, r3, lsl #2]
  46 0028 1C68     		ldr	r4, [r3]
  47 002a 9100     		lsls	r1, r2, #2
  48 002c 0F22     		movs	r2, #15
  49 002e 8A40     		lsls	r2, r2, r1
  50 0030 24EA0202 		bic	r2, r4, r2
  51 0034 1A60     		str	r2, [r3]
  52 0036 1C68     		ldr	r4, [r3]
  53 0038 00FA01F2 		lsl	r2, r0, r1
  54 003c 2243     		orrs	r2, r2, r4
  55 003e 1A60     		str	r2, [r3]
  56 0040 0120     		movs	r0, #1
  57              	.L2:
  58 0042 10BC     		pop	{r4}
ARM GAS  /tmp/ccyPe1gI.s 			page 2


  59 0044 7047     		bx	lr
  60              	.L13:
  61 0046 1449     		ldr	r1, .L15
  62 0048 51F82300 		ldr	r0, [r1, r3, lsl #2]
  63 004c 0121     		movs	r1, #1
  64 004e 9140     		lsls	r1, r1, r2
  65 0050 0161     		str	r1, [r0, #16]
  66 0052 0820     		movs	r0, #8
  67 0054 E3E7     		b	.L4
  68              	.L14:
  69 0056 1049     		ldr	r1, .L15
  70 0058 51F82340 		ldr	r4, [r1, r3, lsl #2]
  71 005c 0121     		movs	r1, #1
  72 005e 9140     		lsls	r1, r1, r2
  73 0060 6161     		str	r1, [r4, #20]
  74 0062 DCE7     		b	.L4
  75              	.L5:
  76 0064 083A     		subs	r2, r2, #8
  77 0066 D2B2     		uxtb	r2, r2
  78 0068 0B49     		ldr	r1, .L15
  79 006a 51F82330 		ldr	r3, [r1, r3, lsl #2]
  80 006e 5968     		ldr	r1, [r3, #4]
  81 0070 9200     		lsls	r2, r2, #2
  82 0072 0F24     		movs	r4, #15
  83 0074 9440     		lsls	r4, r4, r2
  84 0076 21EA0401 		bic	r1, r1, r4
  85 007a 5960     		str	r1, [r3, #4]
  86 007c 5968     		ldr	r1, [r3, #4]
  87 007e 00FA02F2 		lsl	r2, r0, r2
  88 0082 0A43     		orrs	r2, r2, r1
  89 0084 5A60     		str	r2, [r3, #4]
  90 0086 0120     		movs	r0, #1
  91 0088 DBE7     		b	.L2
  92              	.L6:
  93 008a 0020     		movs	r0, #0
  94 008c 7047     		bx	lr
  95              	.L7:
  96 008e 0020     		movs	r0, #0
  97 0090 7047     		bx	lr
  98              	.L8:
  99 0092 0020     		movs	r0, #0
 100 0094 7047     		bx	lr
 101              	.L16:
 102 0096 00BF     		.align	2
 103              	.L15:
 104 0098 00000000 		.word	.LANCHOR0
 106              		.section	.text.GPIO_enumSETPinValue,"ax",%progbits
 107              		.align	1
 108              		.global	GPIO_enumSETPinValue
 109              		.syntax unified
 110              		.thumb
 111              		.thumb_func
 112              		.fpu softvfp
 114              	GPIO_enumSETPinValue:
 115              		@ args = 0, pretend = 0, frame = 0
 116              		@ frame_needed = 0, uses_anonymous_args = 0
 117              		@ link register save eliminated.
ARM GAS  /tmp/ccyPe1gI.s 			page 3


 118 0000 C8B1     		cbz	r0, .L20
 119 0002 0278     		ldrb	r2, [r0]	@ zero_extendqisi2
 120 0004 022A     		cmp	r2, #2
 121 0006 18D8     		bhi	.L21
 122 0008 4378     		ldrb	r3, [r0, #1]	@ zero_extendqisi2
 123 000a 0F2B     		cmp	r3, #15
 124 000c 17D8     		bhi	.L22
 125 000e 0129     		cmp	r1, #1
 126 0010 08D0     		beq	.L24
 127 0012 B1B9     		cbnz	r1, .L23
 128 0014 0C49     		ldr	r1, .L25
 129 0016 51F82220 		ldr	r2, [r1, r2, lsl #2]
 130 001a 0120     		movs	r0, #1
 131 001c 00FA03F3 		lsl	r3, r0, r3
 132 0020 5361     		str	r3, [r2, #20]
 133 0022 7047     		bx	lr
 134              	.L24:
 135 0024 0848     		ldr	r0, .L25
 136 0026 50F82200 		ldr	r0, [r0, r2, lsl #2]
 137 002a 0122     		movs	r2, #1
 138 002c 02FA03F3 		lsl	r3, r2, r3
 139 0030 0361     		str	r3, [r0, #16]
 140 0032 0846     		mov	r0, r1
 141 0034 7047     		bx	lr
 142              	.L20:
 143 0036 0120     		movs	r0, #1
 144 0038 7047     		bx	lr
 145              	.L21:
 146 003a 0020     		movs	r0, #0
 147 003c 7047     		bx	lr
 148              	.L22:
 149 003e 0020     		movs	r0, #0
 150 0040 7047     		bx	lr
 151              	.L23:
 152 0042 0120     		movs	r0, #1
 153 0044 7047     		bx	lr
 154              	.L26:
 155 0046 00BF     		.align	2
 156              	.L25:
 157 0048 00000000 		.word	.LANCHOR0
 159              		.section	.text.GPIO_enumGETPinValue,"ax",%progbits
 160              		.align	1
 161              		.global	GPIO_enumGETPinValue
 162              		.syntax unified
 163              		.thumb
 164              		.thumb_func
 165              		.fpu softvfp
 167              	GPIO_enumGETPinValue:
 168              		@ args = 0, pretend = 0, frame = 0
 169              		@ frame_needed = 0, uses_anonymous_args = 0
 170              		@ link register save eliminated.
 171 0000 80B1     		cbz	r0, .L29
 172 0002 89B1     		cbz	r1, .L30
 173 0004 0278     		ldrb	r2, [r0]	@ zero_extendqisi2
 174 0006 022A     		cmp	r2, #2
 175 0008 10D8     		bhi	.L31
 176 000a 4078     		ldrb	r0, [r0, #1]	@ zero_extendqisi2
ARM GAS  /tmp/ccyPe1gI.s 			page 4


 177 000c 0F28     		cmp	r0, #15
 178 000e 0FD8     		bhi	.L32
 179 0010 084B     		ldr	r3, .L33
 180 0012 53F82230 		ldr	r3, [r3, r2, lsl #2]
 181 0016 9B68     		ldr	r3, [r3, #8]
 182 0018 C340     		lsrs	r3, r3, r0
 183 001a 03F00103 		and	r3, r3, #1
 184 001e 0B70     		strb	r3, [r1]
 185 0020 0120     		movs	r0, #1
 186 0022 7047     		bx	lr
 187              	.L29:
 188 0024 0120     		movs	r0, #1
 189 0026 7047     		bx	lr
 190              	.L30:
 191 0028 0120     		movs	r0, #1
 192 002a 7047     		bx	lr
 193              	.L31:
 194 002c 0020     		movs	r0, #0
 195 002e 7047     		bx	lr
 196              	.L32:
 197 0030 0020     		movs	r0, #0
 198 0032 7047     		bx	lr
 199              	.L34:
 200              		.align	2
 201              	.L33:
 202 0034 00000000 		.word	.LANCHOR0
 204              		.section	.rodata.GPIO_PORT,"a"
 205              		.align	2
 206              		.set	.LANCHOR0,. + 0
 209              	GPIO_PORT:
 210 0000 00080140 		.word	1073809408
 211 0004 000C0140 		.word	1073810432
 212 0008 00100140 		.word	1073811456
 213 000c 00140140 		.word	1073812480
 214 0010 00180140 		.word	1073813504
 215 0014 00000000 		.space	8
 215      00000000 
 216              		.ident	"GCC: (15:9-2019-q4-0ubuntu1) 9.2.1 20191025 (release) [ARM/arm-9-branch revision 277599]"
ARM GAS  /tmp/ccyPe1gI.s 			page 5

