ARM GAS  /tmp/ccy7pcLg.s 			page 1


   1              		.cpu cortex-m3
   2              		.eabi_attribute 20, 1
   3              		.eabi_attribute 21, 1
   4              		.eabi_attribute 23, 3
   5              		.eabi_attribute 24, 1
   6              		.eabi_attribute 25, 1
   7              		.eabi_attribute 26, 1
   8              		.eabi_attribute 30, 1
   9              		.eabi_attribute 34, 1
  10              		.eabi_attribute 18, 4
  11              		.file	"RCC_program.c"
  12              		.text
  13              		.section	.text.RCC_enumPeripheralCLKEnable,"ax",%progbits
  14              		.align	1
  15              		.global	RCC_enumPeripheralCLKEnable
  16              		.arch armv7-m
  17              		.syntax unified
  18              		.thumb
  19              		.thumb_func
  20              		.fpu softvfp
  22              	RCC_enumPeripheralCLKEnable:
  23              		@ args = 0, pretend = 0, frame = 0
  24              		@ frame_needed = 0, uses_anonymous_args = 0
  25              		@ link register save eliminated.
  26 0000 1F29     		cmp	r1, #31
  27 0002 20D8     		bhi	.L5
  28 0004 0128     		cmp	r0, #1
  29 0006 0CD0     		beq	.L3
  30 0008 0228     		cmp	r0, #2
  31 000a 14D0     		beq	.L4
  32 000c 08B1     		cbz	r0, .L10
  33 000e 0020     		movs	r0, #0
  34 0010 7047     		bx	lr
  35              	.L10:
  36 0012 0E4A     		ldr	r2, .L11
  37 0014 5369     		ldr	r3, [r2, #20]
  38 0016 0120     		movs	r0, #1
  39 0018 00FA01F1 		lsl	r1, r0, r1
  40 001c 1943     		orrs	r1, r1, r3
  41 001e 5161     		str	r1, [r2, #20]
  42 0020 7047     		bx	lr
  43              	.L3:
  44 0022 10B4     		push	{r4}
  45 0024 094C     		ldr	r4, .L11
  46 0026 A369     		ldr	r3, [r4, #24]
  47 0028 0122     		movs	r2, #1
  48 002a 02FA01F1 		lsl	r1, r2, r1
  49 002e 1943     		orrs	r1, r1, r3
  50 0030 A161     		str	r1, [r4, #24]
  51 0032 10BC     		pop	{r4}
  52 0034 7047     		bx	lr
  53              	.L4:
  54 0036 054A     		ldr	r2, .L11
  55 0038 D369     		ldr	r3, [r2, #28]
  56 003a 0120     		movs	r0, #1
  57 003c 00FA01F1 		lsl	r1, r0, r1
  58 0040 1943     		orrs	r1, r1, r3
ARM GAS  /tmp/ccy7pcLg.s 			page 2


  59 0042 D161     		str	r1, [r2, #28]
  60 0044 7047     		bx	lr
  61              	.L5:
  62 0046 0020     		movs	r0, #0
  63 0048 7047     		bx	lr
  64              	.L12:
  65 004a 00BF     		.align	2
  66              	.L11:
  67 004c 00100240 		.word	1073876992
  69              		.section	.text.RCC_enumPeripheralCLKDisable,"ax",%progbits
  70              		.align	1
  71              		.global	RCC_enumPeripheralCLKDisable
  72              		.syntax unified
  73              		.thumb
  74              		.thumb_func
  75              		.fpu softvfp
  77              	RCC_enumPeripheralCLKDisable:
  78              		@ args = 0, pretend = 0, frame = 0
  79              		@ frame_needed = 0, uses_anonymous_args = 0
  80              		@ link register save eliminated.
  81 0000 1F29     		cmp	r1, #31
  82 0002 23D8     		bhi	.L17
  83 0004 0128     		cmp	r0, #1
  84 0006 0DD0     		beq	.L15
  85 0008 0228     		cmp	r0, #2
  86 000a 16D0     		beq	.L16
  87 000c 08B1     		cbz	r0, .L22
  88 000e 0020     		movs	r0, #0
  89 0010 7047     		bx	lr
  90              	.L22:
  91 0012 0F4A     		ldr	r2, .L23
  92 0014 5369     		ldr	r3, [r2, #20]
  93 0016 0120     		movs	r0, #1
  94 0018 00FA01F1 		lsl	r1, r0, r1
  95 001c 23EA0101 		bic	r1, r3, r1
  96 0020 5161     		str	r1, [r2, #20]
  97 0022 7047     		bx	lr
  98              	.L15:
  99 0024 10B4     		push	{r4}
 100 0026 0A4C     		ldr	r4, .L23
 101 0028 A369     		ldr	r3, [r4, #24]
 102 002a 0122     		movs	r2, #1
 103 002c 02FA01F1 		lsl	r1, r2, r1
 104 0030 23EA0101 		bic	r1, r3, r1
 105 0034 A161     		str	r1, [r4, #24]
 106 0036 10BC     		pop	{r4}
 107 0038 7047     		bx	lr
 108              	.L16:
 109 003a 054A     		ldr	r2, .L23
 110 003c D369     		ldr	r3, [r2, #28]
 111 003e 0120     		movs	r0, #1
 112 0040 00FA01F1 		lsl	r1, r0, r1
 113 0044 23EA0101 		bic	r1, r3, r1
 114 0048 D161     		str	r1, [r2, #28]
 115 004a 7047     		bx	lr
 116              	.L17:
 117 004c 0020     		movs	r0, #0
ARM GAS  /tmp/ccy7pcLg.s 			page 3


 118 004e 7047     		bx	lr
 119              	.L24:
 120              		.align	2
 121              	.L23:
 122 0050 00100240 		.word	1073876992
 124              		.section	.text.RCC_voidSETAHB_Prescaller,"ax",%progbits
 125              		.align	1
 126              		.global	RCC_voidSETAHB_Prescaller
 127              		.syntax unified
 128              		.thumb
 129              		.thumb_func
 130              		.fpu softvfp
 132              	RCC_voidSETAHB_Prescaller:
 133              		@ args = 0, pretend = 0, frame = 0
 134              		@ frame_needed = 0, uses_anonymous_args = 0
 135              		@ link register save eliminated.
 136 0000 024A     		ldr	r2, .L26
 137 0002 5368     		ldr	r3, [r2, #4]
 138 0004 23F08003 		bic	r3, r3, #128
 139 0008 5360     		str	r3, [r2, #4]
 140 000a 7047     		bx	lr
 141              	.L27:
 142              		.align	2
 143              	.L26:
 144 000c 00100240 		.word	1073876992
 146              		.section	.text.RCC_voidSETAPB1_Prescaller,"ax",%progbits
 147              		.align	1
 148              		.global	RCC_voidSETAPB1_Prescaller
 149              		.syntax unified
 150              		.thumb
 151              		.thumb_func
 152              		.fpu softvfp
 154              	RCC_voidSETAPB1_Prescaller:
 155              		@ args = 0, pretend = 0, frame = 0
 156              		@ frame_needed = 0, uses_anonymous_args = 0
 157              		@ link register save eliminated.
 158 0000 024A     		ldr	r2, .L29
 159 0002 5368     		ldr	r3, [r2, #4]
 160 0004 23F48063 		bic	r3, r3, #1024
 161 0008 5360     		str	r3, [r2, #4]
 162 000a 7047     		bx	lr
 163              	.L30:
 164              		.align	2
 165              	.L29:
 166 000c 00100240 		.word	1073876992
 168              		.section	.text.RCC_voidSETAPB2_Prescaller,"ax",%progbits
 169              		.align	1
 170              		.global	RCC_voidSETAPB2_Prescaller
 171              		.syntax unified
 172              		.thumb
 173              		.thumb_func
 174              		.fpu softvfp
 176              	RCC_voidSETAPB2_Prescaller:
 177              		@ args = 0, pretend = 0, frame = 0
 178              		@ frame_needed = 0, uses_anonymous_args = 0
 179              		@ link register save eliminated.
 180 0000 024A     		ldr	r2, .L32
ARM GAS  /tmp/ccy7pcLg.s 			page 4


 181 0002 5368     		ldr	r3, [r2, #4]
 182 0004 23F40053 		bic	r3, r3, #8192
 183 0008 5360     		str	r3, [r2, #4]
 184 000a 7047     		bx	lr
 185              	.L33:
 186              		.align	2
 187              	.L32:
 188 000c 00100240 		.word	1073876992
 190              		.section	.text.RCC_voidCLKInit,"ax",%progbits
 191              		.align	1
 192              		.global	RCC_voidCLKInit
 193              		.syntax unified
 194              		.thumb
 195              		.thumb_func
 196              		.fpu softvfp
 198              	RCC_voidCLKInit:
 199              		@ args = 0, pretend = 0, frame = 0
 200              		@ frame_needed = 0, uses_anonymous_args = 0
 201 0000 08B5     		push	{r3, lr}
 202 0002 FFF7FEFF 		bl	RCC_voidSETAHB_Prescaller
 203 0006 FFF7FEFF 		bl	RCC_voidSETAPB1_Prescaller
 204 000a FFF7FEFF 		bl	RCC_voidSETAPB2_Prescaller
 205 000e 094B     		ldr	r3, .L37
 206 0010 5A68     		ldr	r2, [r3, #4]
 207 0012 22F00102 		bic	r2, r2, #1
 208 0016 5A60     		str	r2, [r3, #4]
 209 0018 5A68     		ldr	r2, [r3, #4]
 210 001a 22F00202 		bic	r2, r2, #2
 211 001e 5A60     		str	r2, [r3, #4]
 212 0020 1A68     		ldr	r2, [r3]
 213 0022 42F00102 		orr	r2, r2, #1
 214 0026 1A60     		str	r2, [r3]
 215              	.L35:
 216 0028 024B     		ldr	r3, .L37
 217 002a 1B68     		ldr	r3, [r3]
 218 002c 13F0020F 		tst	r3, #2
 219 0030 FAD0     		beq	.L35
 220 0032 08BD     		pop	{r3, pc}
 221              	.L38:
 222              		.align	2
 223              	.L37:
 224 0034 00100240 		.word	1073876992
 226              		.section	.text.RCC_voidSETPLL_CLK_SOURCE,"ax",%progbits
 227              		.align	1
 228              		.global	RCC_voidSETPLL_CLK_SOURCE
 229              		.syntax unified
 230              		.thumb
 231              		.thumb_func
 232              		.fpu softvfp
 234              	RCC_voidSETPLL_CLK_SOURCE:
 235              		@ args = 0, pretend = 0, frame = 0
 236              		@ frame_needed = 0, uses_anonymous_args = 0
 237              		@ link register save eliminated.
 238 0000 7047     		bx	lr
 240              		.section	.text.RCC_voidSETPLLPRESCALLER,"ax",%progbits
 241              		.align	1
 242              		.global	RCC_voidSETPLLPRESCALLER
ARM GAS  /tmp/ccy7pcLg.s 			page 5


 243              		.syntax unified
 244              		.thumb
 245              		.thumb_func
 246              		.fpu softvfp
 248              	RCC_voidSETPLLPRESCALLER:
 249              		@ args = 0, pretend = 0, frame = 0
 250              		@ frame_needed = 0, uses_anonymous_args = 0
 251              		@ link register save eliminated.
 252 0000 7047     		bx	lr
 254              		.section	.text.RCC_voidSETPLL_MULTIPLCATION_FACTOR,"ax",%progbits
 255              		.align	1
 256              		.global	RCC_voidSETPLL_MULTIPLCATION_FACTOR
 257              		.syntax unified
 258              		.thumb
 259              		.thumb_func
 260              		.fpu softvfp
 262              	RCC_voidSETPLL_MULTIPLCATION_FACTOR:
 263              		@ args = 0, pretend = 0, frame = 0
 264              		@ frame_needed = 0, uses_anonymous_args = 0
 265              		@ link register save eliminated.
 266 0000 7047     		bx	lr
 268              		.section	.text.RCC_voidHSEBYPASS,"ax",%progbits
 269              		.align	1
 270              		.global	RCC_voidHSEBYPASS
 271              		.syntax unified
 272              		.thumb
 273              		.thumb_func
 274              		.fpu softvfp
 276              	RCC_voidHSEBYPASS:
 277              		@ args = 0, pretend = 0, frame = 0
 278              		@ frame_needed = 0, uses_anonymous_args = 0
 279              		@ link register save eliminated.
 280 0000 7047     		bx	lr
 282              		.ident	"GCC: (15:9-2019-q4-0ubuntu1) 9.2.1 20191025 (release) [ARM/arm-9-branch revision 277599]"
ARM GAS  /tmp/ccy7pcLg.s 			page 6


DEFINED SYMBOLS
                            *ABS*:0000000000000000 RCC_program.c
     /tmp/ccy7pcLg.s:14     .text.RCC_enumPeripheralCLKEnable:0000000000000000 $t
     /tmp/ccy7pcLg.s:22     .text.RCC_enumPeripheralCLKEnable:0000000000000000 RCC_enumPeripheralCLKEnable
     /tmp/ccy7pcLg.s:67     .text.RCC_enumPeripheralCLKEnable:000000000000004c $d
     /tmp/ccy7pcLg.s:70     .text.RCC_enumPeripheralCLKDisable:0000000000000000 $t
     /tmp/ccy7pcLg.s:77     .text.RCC_enumPeripheralCLKDisable:0000000000000000 RCC_enumPeripheralCLKDisable
     /tmp/ccy7pcLg.s:122    .text.RCC_enumPeripheralCLKDisable:0000000000000050 $d
     /tmp/ccy7pcLg.s:125    .text.RCC_voidSETAHB_Prescaller:0000000000000000 $t
     /tmp/ccy7pcLg.s:132    .text.RCC_voidSETAHB_Prescaller:0000000000000000 RCC_voidSETAHB_Prescaller
     /tmp/ccy7pcLg.s:144    .text.RCC_voidSETAHB_Prescaller:000000000000000c $d
     /tmp/ccy7pcLg.s:147    .text.RCC_voidSETAPB1_Prescaller:0000000000000000 $t
     /tmp/ccy7pcLg.s:154    .text.RCC_voidSETAPB1_Prescaller:0000000000000000 RCC_voidSETAPB1_Prescaller
     /tmp/ccy7pcLg.s:166    .text.RCC_voidSETAPB1_Prescaller:000000000000000c $d
     /tmp/ccy7pcLg.s:169    .text.RCC_voidSETAPB2_Prescaller:0000000000000000 $t
     /tmp/ccy7pcLg.s:176    .text.RCC_voidSETAPB2_Prescaller:0000000000000000 RCC_voidSETAPB2_Prescaller
     /tmp/ccy7pcLg.s:188    .text.RCC_voidSETAPB2_Prescaller:000000000000000c $d
     /tmp/ccy7pcLg.s:191    .text.RCC_voidCLKInit:0000000000000000 $t
     /tmp/ccy7pcLg.s:198    .text.RCC_voidCLKInit:0000000000000000 RCC_voidCLKInit
     /tmp/ccy7pcLg.s:224    .text.RCC_voidCLKInit:0000000000000034 $d
     /tmp/ccy7pcLg.s:227    .text.RCC_voidSETPLL_CLK_SOURCE:0000000000000000 $t
     /tmp/ccy7pcLg.s:234    .text.RCC_voidSETPLL_CLK_SOURCE:0000000000000000 RCC_voidSETPLL_CLK_SOURCE
     /tmp/ccy7pcLg.s:241    .text.RCC_voidSETPLLPRESCALLER:0000000000000000 $t
     /tmp/ccy7pcLg.s:248    .text.RCC_voidSETPLLPRESCALLER:0000000000000000 RCC_voidSETPLLPRESCALLER
     /tmp/ccy7pcLg.s:255    .text.RCC_voidSETPLL_MULTIPLCATION_FACTOR:0000000000000000 $t
     /tmp/ccy7pcLg.s:262    .text.RCC_voidSETPLL_MULTIPLCATION_FACTOR:0000000000000000 RCC_voidSETPLL_MULTIPLCATION_FACTOR
     /tmp/ccy7pcLg.s:269    .text.RCC_voidHSEBYPASS:0000000000000000 $t
     /tmp/ccy7pcLg.s:276    .text.RCC_voidHSEBYPASS:0000000000000000 RCC_voidHSEBYPASS

NO UNDEFINED SYMBOLS
