ARM GAS  /tmp/cc3SVMUj.s 			page 1


   1              		.cpu cortex-m3
   2              		.eabi_attribute 20, 1
   3              		.eabi_attribute 21, 1
   4              		.eabi_attribute 23, 3
   5              		.eabi_attribute 24, 1
   6              		.eabi_attribute 25, 1
   7              		.eabi_attribute 26, 1
   8              		.eabi_attribute 30, 2
   9              		.eabi_attribute 34, 1
  10              		.eabi_attribute 18, 4
  11              		.file	"RCC_program.c"
  12              		.text
  13              		.section	.text.RCC_voidCLKInit,"ax",%progbits
  14              		.align	1
  15              		.p2align 2,,3
  16              		.global	RCC_voidCLKInit
  17              		.arch armv7-m
  18              		.syntax unified
  19              		.thumb
  20              		.thumb_func
  21              		.fpu softvfp
  23              	RCC_voidCLKInit:
  24              		@ args = 0, pretend = 0, frame = 0
  25              		@ frame_needed = 0, uses_anonymous_args = 0
  26              		@ link register save eliminated.
  27 0000 0E4B     		ldr	r3, .L6
  28 0002 1A46     		mov	r2, r3
  29 0004 5968     		ldr	r1, [r3, #4]
  30 0006 21F08001 		bic	r1, r1, #128
  31 000a 5960     		str	r1, [r3, #4]
  32 000c 5968     		ldr	r1, [r3, #4]
  33 000e 21F48061 		bic	r1, r1, #1024
  34 0012 5960     		str	r1, [r3, #4]
  35 0014 5968     		ldr	r1, [r3, #4]
  36 0016 21F40051 		bic	r1, r1, #8192
  37 001a 5960     		str	r1, [r3, #4]
  38 001c 5968     		ldr	r1, [r3, #4]
  39 001e 21F00101 		bic	r1, r1, #1
  40 0022 5960     		str	r1, [r3, #4]
  41 0024 5968     		ldr	r1, [r3, #4]
  42 0026 21F00201 		bic	r1, r1, #2
  43 002a 5960     		str	r1, [r3, #4]
  44 002c 1968     		ldr	r1, [r3]
  45 002e 41F00101 		orr	r1, r1, #1
  46 0032 1960     		str	r1, [r3]
  47              	.L2:
  48 0034 1368     		ldr	r3, [r2]
  49 0036 9B07     		lsls	r3, r3, #30
  50 0038 FCD5     		bpl	.L2
  51 003a 7047     		bx	lr
  52              	.L7:
  53              		.align	2
  54              	.L6:
  55 003c 00100240 		.word	1073876992
  57              		.section	.text.RCC_enumPeripheralCLKEnable,"ax",%progbits
  58              		.align	1
  59              		.p2align 2,,3
ARM GAS  /tmp/cc3SVMUj.s 			page 2


  60              		.global	RCC_enumPeripheralCLKEnable
  61              		.syntax unified
  62              		.thumb
  63              		.thumb_func
  64              		.fpu softvfp
  66              	RCC_enumPeripheralCLKEnable:
  67              		@ args = 0, pretend = 0, frame = 0
  68              		@ frame_needed = 0, uses_anonymous_args = 0
  69              		@ link register save eliminated.
  70 0000 1F29     		cmp	r1, #31
  71 0002 04D8     		bhi	.L13
  72 0004 0128     		cmp	r0, #1
  73 0006 14D0     		beq	.L10
  74 0008 0228     		cmp	r0, #2
  75 000a 0AD0     		beq	.L11
  76 000c 08B1     		cbz	r0, .L14
  77              	.L13:
  78 000e 0020     		movs	r0, #0
  79 0010 7047     		bx	lr
  80              	.L14:
  81 0012 0120     		movs	r0, #1
  82 0014 0A4B     		ldr	r3, .L15
  83 0016 00FA01F1 		lsl	r1, r0, r1
  84 001a 5A69     		ldr	r2, [r3, #20]
  85 001c 1143     		orrs	r1, r1, r2
  86 001e 5961     		str	r1, [r3, #20]
  87 0020 7047     		bx	lr
  88              	.L11:
  89 0022 0120     		movs	r0, #1
  90 0024 064B     		ldr	r3, .L15
  91 0026 00FA01F1 		lsl	r1, r0, r1
  92 002a DA69     		ldr	r2, [r3, #28]
  93 002c 1143     		orrs	r1, r1, r2
  94 002e D961     		str	r1, [r3, #28]
  95 0030 7047     		bx	lr
  96              	.L10:
  97 0032 034B     		ldr	r3, .L15
  98 0034 00FA01F1 		lsl	r1, r0, r1
  99 0038 9A69     		ldr	r2, [r3, #24]
 100 003a 1143     		orrs	r1, r1, r2
 101 003c 9961     		str	r1, [r3, #24]
 102 003e 7047     		bx	lr
 103              	.L16:
 104              		.align	2
 105              	.L15:
 106 0040 00100240 		.word	1073876992
 108              		.section	.text.RCC_enumPeripheralCLKDisable,"ax",%progbits
 109              		.align	1
 110              		.p2align 2,,3
 111              		.global	RCC_enumPeripheralCLKDisable
 112              		.syntax unified
 113              		.thumb
 114              		.thumb_func
 115              		.fpu softvfp
 117              	RCC_enumPeripheralCLKDisable:
 118              		@ args = 0, pretend = 0, frame = 0
 119              		@ frame_needed = 0, uses_anonymous_args = 0
ARM GAS  /tmp/cc3SVMUj.s 			page 3


 120              		@ link register save eliminated.
 121 0000 1F29     		cmp	r1, #31
 122 0002 04D8     		bhi	.L22
 123 0004 0128     		cmp	r0, #1
 124 0006 16D0     		beq	.L19
 125 0008 0228     		cmp	r0, #2
 126 000a 0BD0     		beq	.L20
 127 000c 08B1     		cbz	r0, .L23
 128              	.L22:
 129 000e 0020     		movs	r0, #0
 130 0010 7047     		bx	lr
 131              	.L23:
 132 0012 0120     		movs	r0, #1
 133 0014 0C4A     		ldr	r2, .L24
 134 0016 00FA01F1 		lsl	r1, r0, r1
 135 001a 5369     		ldr	r3, [r2, #20]
 136 001c 23EA0101 		bic	r1, r3, r1
 137 0020 5161     		str	r1, [r2, #20]
 138 0022 7047     		bx	lr
 139              	.L20:
 140 0024 0120     		movs	r0, #1
 141 0026 084A     		ldr	r2, .L24
 142 0028 00FA01F1 		lsl	r1, r0, r1
 143 002c D369     		ldr	r3, [r2, #28]
 144 002e 23EA0101 		bic	r1, r3, r1
 145 0032 D161     		str	r1, [r2, #28]
 146 0034 7047     		bx	lr
 147              	.L19:
 148 0036 044A     		ldr	r2, .L24
 149 0038 00FA01F1 		lsl	r1, r0, r1
 150 003c 9369     		ldr	r3, [r2, #24]
 151 003e 23EA0101 		bic	r1, r3, r1
 152 0042 9161     		str	r1, [r2, #24]
 153 0044 7047     		bx	lr
 154              	.L25:
 155 0046 00BF     		.align	2
 156              	.L24:
 157 0048 00100240 		.word	1073876992
 159              		.section	.text.RCC_voidSETAHB_Prescaller,"ax",%progbits
 160              		.align	1
 161              		.p2align 2,,3
 162              		.global	RCC_voidSETAHB_Prescaller
 163              		.syntax unified
 164              		.thumb
 165              		.thumb_func
 166              		.fpu softvfp
 168              	RCC_voidSETAHB_Prescaller:
 169              		@ args = 0, pretend = 0, frame = 0
 170              		@ frame_needed = 0, uses_anonymous_args = 0
 171              		@ link register save eliminated.
 172 0000 024A     		ldr	r2, .L27
 173 0002 5368     		ldr	r3, [r2, #4]
 174 0004 23F08003 		bic	r3, r3, #128
 175 0008 5360     		str	r3, [r2, #4]
 176 000a 7047     		bx	lr
 177              	.L28:
 178              		.align	2
ARM GAS  /tmp/cc3SVMUj.s 			page 4


 179              	.L27:
 180 000c 00100240 		.word	1073876992
 182              		.section	.text.RCC_voidSETAPB1_Prescaller,"ax",%progbits
 183              		.align	1
 184              		.p2align 2,,3
 185              		.global	RCC_voidSETAPB1_Prescaller
 186              		.syntax unified
 187              		.thumb
 188              		.thumb_func
 189              		.fpu softvfp
 191              	RCC_voidSETAPB1_Prescaller:
 192              		@ args = 0, pretend = 0, frame = 0
 193              		@ frame_needed = 0, uses_anonymous_args = 0
 194              		@ link register save eliminated.
 195 0000 024A     		ldr	r2, .L30
 196 0002 5368     		ldr	r3, [r2, #4]
 197 0004 23F48063 		bic	r3, r3, #1024
 198 0008 5360     		str	r3, [r2, #4]
 199 000a 7047     		bx	lr
 200              	.L31:
 201              		.align	2
 202              	.L30:
 203 000c 00100240 		.word	1073876992
 205              		.section	.text.RCC_voidSETAPB2_Prescaller,"ax",%progbits
 206              		.align	1
 207              		.p2align 2,,3
 208              		.global	RCC_voidSETAPB2_Prescaller
 209              		.syntax unified
 210              		.thumb
 211              		.thumb_func
 212              		.fpu softvfp
 214              	RCC_voidSETAPB2_Prescaller:
 215              		@ args = 0, pretend = 0, frame = 0
 216              		@ frame_needed = 0, uses_anonymous_args = 0
 217              		@ link register save eliminated.
 218 0000 024A     		ldr	r2, .L33
 219 0002 5368     		ldr	r3, [r2, #4]
 220 0004 23F40053 		bic	r3, r3, #8192
 221 0008 5360     		str	r3, [r2, #4]
 222 000a 7047     		bx	lr
 223              	.L34:
 224              		.align	2
 225              	.L33:
 226 000c 00100240 		.word	1073876992
 228              		.section	.text.RCC_voidSETPLL_CLK_SOURCE,"ax",%progbits
 229              		.align	1
 230              		.p2align 2,,3
 231              		.global	RCC_voidSETPLL_CLK_SOURCE
 232              		.syntax unified
 233              		.thumb
 234              		.thumb_func
 235              		.fpu softvfp
 237              	RCC_voidSETPLL_CLK_SOURCE:
 238              		@ args = 0, pretend = 0, frame = 0
 239              		@ frame_needed = 0, uses_anonymous_args = 0
 240              		@ link register save eliminated.
 241 0000 7047     		bx	lr
ARM GAS  /tmp/cc3SVMUj.s 			page 5


 243 0002 00BF     		.section	.text.RCC_voidSETPLLPRESCALLER,"ax",%progbits
 244              		.align	1
 245              		.p2align 2,,3
 246              		.global	RCC_voidSETPLLPRESCALLER
 247              		.syntax unified
 248              		.thumb
 249              		.thumb_func
 250              		.fpu softvfp
 252              	RCC_voidSETPLLPRESCALLER:
 253              		@ args = 0, pretend = 0, frame = 0
 254              		@ frame_needed = 0, uses_anonymous_args = 0
 255              		@ link register save eliminated.
 256 0000 7047     		bx	lr
 258 0002 00BF     		.section	.text.RCC_voidSETPLL_MULTIPLCATION_FACTOR,"ax",%progbits
 259              		.align	1
 260              		.p2align 2,,3
 261              		.global	RCC_voidSETPLL_MULTIPLCATION_FACTOR
 262              		.syntax unified
 263              		.thumb
 264              		.thumb_func
 265              		.fpu softvfp
 267              	RCC_voidSETPLL_MULTIPLCATION_FACTOR:
 268              		@ args = 0, pretend = 0, frame = 0
 269              		@ frame_needed = 0, uses_anonymous_args = 0
 270              		@ link register save eliminated.
 271 0000 7047     		bx	lr
 273 0002 00BF     		.section	.text.RCC_voidHSEBYPASS,"ax",%progbits
 274              		.align	1
 275              		.p2align 2,,3
 276              		.global	RCC_voidHSEBYPASS
 277              		.syntax unified
 278              		.thumb
 279              		.thumb_func
 280              		.fpu softvfp
 282              	RCC_voidHSEBYPASS:
 283              		@ args = 0, pretend = 0, frame = 0
 284              		@ frame_needed = 0, uses_anonymous_args = 0
 285              		@ link register save eliminated.
 286 0000 7047     		bx	lr
 288 0002 00BF     		.ident	"GCC: (15:9-2019-q4-0ubuntu1) 9.2.1 20191025 (release) [ARM/arm-9-branch revision 277599]"
ARM GAS  /tmp/cc3SVMUj.s 			page 6

