ARM GAS  /tmp/ccK3CPnQ.s 			page 1


   1              		.cpu cortex-m3
   2              		.eabi_attribute 20, 1
   3              		.eabi_attribute 21, 1
   4              		.eabi_attribute 23, 3
   5              		.eabi_attribute 24, 1
   6              		.eabi_attribute 25, 1
   7              		.eabi_attribute 26, 1
   8              		.eabi_attribute 30, 2
   9              		.eabi_attribute 34, 1
  10              		.eabi_attribute 18, 4
  11              		.file	"stm32f1xx_hal.c"
  12              		.text
  13              		.section	.text.HAL_MspInit,"ax",%progbits
  14              		.align	1
  15              		.p2align 2,,3
  16              		.weak	HAL_MspInit
  17              		.arch armv7-m
  18              		.syntax unified
  19              		.thumb
  20              		.thumb_func
  21              		.fpu softvfp
  23              	HAL_MspInit:
  24              		@ args = 0, pretend = 0, frame = 0
  25              		@ frame_needed = 0, uses_anonymous_args = 0
  26              		@ link register save eliminated.
  27 0000 7047     		bx	lr
  29 0002 00BF     		.section	.text.HAL_MspDeInit,"ax",%progbits
  30              		.align	1
  31              		.p2align 2,,3
  32              		.weak	HAL_MspDeInit
  33              		.syntax unified
  34              		.thumb
  35              		.thumb_func
  36              		.fpu softvfp
  38              	HAL_MspDeInit:
  39              		@ args = 0, pretend = 0, frame = 0
  40              		@ frame_needed = 0, uses_anonymous_args = 0
  41              		@ link register save eliminated.
  42 0000 7047     		bx	lr
  44 0002 00BF     		.section	.text.HAL_DeInit,"ax",%progbits
  45              		.align	1
  46              		.p2align 2,,3
  47              		.global	HAL_DeInit
  48              		.syntax unified
  49              		.thumb
  50              		.thumb_func
  51              		.fpu softvfp
  53              	HAL_DeInit:
  54              		@ args = 0, pretend = 0, frame = 0
  55              		@ frame_needed = 0, uses_anonymous_args = 0
  56 0000 10B5     		push	{r4, lr}
  57 0002 4FF0FF32 		mov	r2, #-1
  58 0006 0024     		movs	r4, #0
  59 0008 044B     		ldr	r3, .L6
  60 000a DA60     		str	r2, [r3, #12]
  61 000c 1C61     		str	r4, [r3, #16]
  62 000e DA60     		str	r2, [r3, #12]
ARM GAS  /tmp/ccK3CPnQ.s 			page 2


  63 0010 DC60     		str	r4, [r3, #12]
  64 0012 FFF7FEFF 		bl	HAL_MspDeInit
  65 0016 2046     		mov	r0, r4
  66 0018 10BD     		pop	{r4, pc}
  67              	.L7:
  68 001a 00BF     		.align	2
  69              	.L6:
  70 001c 00100240 		.word	1073876992
  72              		.section	.text.HAL_InitTick,"ax",%progbits
  73              		.align	1
  74              		.p2align 2,,3
  75              		.weak	HAL_InitTick
  76              		.syntax unified
  77              		.thumb
  78              		.thumb_func
  79              		.fpu softvfp
  81              	HAL_InitTick:
  82              		@ args = 0, pretend = 0, frame = 0
  83              		@ frame_needed = 0, uses_anonymous_args = 0
  84 0000 38B5     		push	{r3, r4, r5, lr}
  85 0002 4FF47A73 		mov	r3, #1000
  86 0006 0D4A     		ldr	r2, .L14
  87 0008 0546     		mov	r5, r0
  88 000a 1178     		ldrb	r1, [r2]	@ zero_extendqisi2
  89 000c 0C4A     		ldr	r2, .L14+4
  90 000e B3FBF1F3 		udiv	r3, r3, r1
  91 0012 1268     		ldr	r2, [r2]
  92 0014 B2FBF3F0 		udiv	r0, r2, r3
  93 0018 FFF7FEFF 		bl	HAL_SYSTICK_Config
  94 001c 08B9     		cbnz	r0, .L11
  95 001e 0F2D     		cmp	r5, #15
  96 0020 01D9     		bls	.L13
  97              	.L11:
  98 0022 0120     		movs	r0, #1
  99 0024 38BD     		pop	{r3, r4, r5, pc}
 100              	.L13:
 101 0026 0446     		mov	r4, r0
 102 0028 0246     		mov	r2, r0
 103 002a 2946     		mov	r1, r5
 104 002c 4FF0FF30 		mov	r0, #-1
 105 0030 FFF7FEFF 		bl	HAL_NVIC_SetPriority
 106 0034 034B     		ldr	r3, .L14+8
 107 0036 2046     		mov	r0, r4
 108 0038 1D60     		str	r5, [r3]
 109 003a 38BD     		pop	{r3, r4, r5, pc}
 110              	.L15:
 111              		.align	2
 112              	.L14:
 113 003c 00000000 		.word	.LANCHOR0
 114 0040 00000000 		.word	SystemCoreClock
 115 0044 00000000 		.word	.LANCHOR1
 117              		.section	.text.HAL_Init,"ax",%progbits
 118              		.align	1
 119              		.p2align 2,,3
 120              		.global	HAL_Init
 121              		.syntax unified
 122              		.thumb
ARM GAS  /tmp/ccK3CPnQ.s 			page 3


 123              		.thumb_func
 124              		.fpu softvfp
 126              	HAL_Init:
 127              		@ args = 0, pretend = 0, frame = 0
 128              		@ frame_needed = 0, uses_anonymous_args = 0
 129 0000 074A     		ldr	r2, .L18
 130 0002 08B5     		push	{r3, lr}
 131 0004 1368     		ldr	r3, [r2]
 132 0006 0320     		movs	r0, #3
 133 0008 43F01003 		orr	r3, r3, #16
 134 000c 1360     		str	r3, [r2]
 135 000e FFF7FEFF 		bl	HAL_NVIC_SetPriorityGrouping
 136 0012 0F20     		movs	r0, #15
 137 0014 FFF7FEFF 		bl	HAL_InitTick
 138 0018 FFF7FEFF 		bl	HAL_MspInit
 139 001c 0020     		movs	r0, #0
 140 001e 08BD     		pop	{r3, pc}
 141              	.L19:
 142              		.align	2
 143              	.L18:
 144 0020 00200240 		.word	1073881088
 146              		.section	.text.HAL_IncTick,"ax",%progbits
 147              		.align	1
 148              		.p2align 2,,3
 149              		.weak	HAL_IncTick
 150              		.syntax unified
 151              		.thumb
 152              		.thumb_func
 153              		.fpu softvfp
 155              	HAL_IncTick:
 156              		@ args = 0, pretend = 0, frame = 0
 157              		@ frame_needed = 0, uses_anonymous_args = 0
 158              		@ link register save eliminated.
 159 0000 034A     		ldr	r2, .L21
 160 0002 044B     		ldr	r3, .L21+4
 161 0004 1168     		ldr	r1, [r2]
 162 0006 1B78     		ldrb	r3, [r3]	@ zero_extendqisi2
 163 0008 0B44     		add	r3, r3, r1
 164 000a 1360     		str	r3, [r2]
 165 000c 7047     		bx	lr
 166              	.L22:
 167 000e 00BF     		.align	2
 168              	.L21:
 169 0010 00000000 		.word	uwTick
 170 0014 00000000 		.word	.LANCHOR0
 172              		.section	.text.HAL_GetTick,"ax",%progbits
 173              		.align	1
 174              		.p2align 2,,3
 175              		.weak	HAL_GetTick
 176              		.syntax unified
 177              		.thumb
 178              		.thumb_func
 179              		.fpu softvfp
 181              	HAL_GetTick:
 182              		@ args = 0, pretend = 0, frame = 0
 183              		@ frame_needed = 0, uses_anonymous_args = 0
 184              		@ link register save eliminated.
ARM GAS  /tmp/ccK3CPnQ.s 			page 4


 185 0000 014B     		ldr	r3, .L24
 186 0002 1868     		ldr	r0, [r3]
 187 0004 7047     		bx	lr
 188              	.L25:
 189 0006 00BF     		.align	2
 190              	.L24:
 191 0008 00000000 		.word	uwTick
 193              		.section	.text.HAL_GetTickPrio,"ax",%progbits
 194              		.align	1
 195              		.p2align 2,,3
 196              		.global	HAL_GetTickPrio
 197              		.syntax unified
 198              		.thumb
 199              		.thumb_func
 200              		.fpu softvfp
 202              	HAL_GetTickPrio:
 203              		@ args = 0, pretend = 0, frame = 0
 204              		@ frame_needed = 0, uses_anonymous_args = 0
 205              		@ link register save eliminated.
 206 0000 014B     		ldr	r3, .L27
 207 0002 1868     		ldr	r0, [r3]
 208 0004 7047     		bx	lr
 209              	.L28:
 210 0006 00BF     		.align	2
 211              	.L27:
 212 0008 00000000 		.word	.LANCHOR1
 214              		.section	.text.HAL_SetTickFreq,"ax",%progbits
 215              		.align	1
 216              		.p2align 2,,3
 217              		.global	HAL_SetTickFreq
 218              		.syntax unified
 219              		.thumb
 220              		.thumb_func
 221              		.fpu softvfp
 223              	HAL_SetTickFreq:
 224              		@ args = 0, pretend = 0, frame = 0
 225              		@ frame_needed = 0, uses_anonymous_args = 0
 226 0000 38B5     		push	{r3, r4, r5, lr}
 227 0002 074C     		ldr	r4, .L37
 228 0004 2578     		ldrb	r5, [r4]	@ zero_extendqisi2
 229 0006 8542     		cmp	r5, r0
 230 0008 01D1     		bne	.L36
 231 000a 0020     		movs	r0, #0
 232              	.L30:
 233 000c 38BD     		pop	{r3, r4, r5, pc}
 234              	.L36:
 235 000e 054B     		ldr	r3, .L37+4
 236 0010 2070     		strb	r0, [r4]
 237 0012 1868     		ldr	r0, [r3]
 238 0014 FFF7FEFF 		bl	HAL_InitTick
 239 0018 0028     		cmp	r0, #0
 240 001a F7D0     		beq	.L30
 241 001c 2570     		strb	r5, [r4]
 242 001e 38BD     		pop	{r3, r4, r5, pc}
 243              	.L38:
 244              		.align	2
 245              	.L37:
ARM GAS  /tmp/ccK3CPnQ.s 			page 5


 246 0020 00000000 		.word	.LANCHOR0
 247 0024 00000000 		.word	.LANCHOR1
 249              		.section	.text.HAL_GetTickFreq,"ax",%progbits
 250              		.align	1
 251              		.p2align 2,,3
 252              		.global	HAL_GetTickFreq
 253              		.syntax unified
 254              		.thumb
 255              		.thumb_func
 256              		.fpu softvfp
 258              	HAL_GetTickFreq:
 259              		@ args = 0, pretend = 0, frame = 0
 260              		@ frame_needed = 0, uses_anonymous_args = 0
 261              		@ link register save eliminated.
 262 0000 014B     		ldr	r3, .L40
 263 0002 1878     		ldrb	r0, [r3]	@ zero_extendqisi2
 264 0004 7047     		bx	lr
 265              	.L41:
 266 0006 00BF     		.align	2
 267              	.L40:
 268 0008 00000000 		.word	.LANCHOR0
 270              		.section	.text.HAL_Delay,"ax",%progbits
 271              		.align	1
 272              		.p2align 2,,3
 273              		.weak	HAL_Delay
 274              		.syntax unified
 275              		.thumb
 276              		.thumb_func
 277              		.fpu softvfp
 279              	HAL_Delay:
 280              		@ args = 0, pretend = 0, frame = 0
 281              		@ frame_needed = 0, uses_anonymous_args = 0
 282 0000 38B5     		push	{r3, r4, r5, lr}
 283 0002 0446     		mov	r4, r0
 284 0004 FFF7FEFF 		bl	HAL_GetTick
 285 0008 631C     		adds	r3, r4, #1
 286 000a 0546     		mov	r5, r0
 287 000c 02D0     		beq	.L44
 288 000e 044B     		ldr	r3, .L50
 289 0010 1B78     		ldrb	r3, [r3]	@ zero_extendqisi2
 290 0012 1C44     		add	r4, r4, r3
 291              	.L44:
 292 0014 FFF7FEFF 		bl	HAL_GetTick
 293 0018 401B     		subs	r0, r0, r5
 294 001a A042     		cmp	r0, r4
 295 001c FAD3     		bcc	.L44
 296 001e 38BD     		pop	{r3, r4, r5, pc}
 297              	.L51:
 298              		.align	2
 299              	.L50:
 300 0020 00000000 		.word	.LANCHOR0
 302              		.section	.text.HAL_SuspendTick,"ax",%progbits
 303              		.align	1
 304              		.p2align 2,,3
 305              		.weak	HAL_SuspendTick
 306              		.syntax unified
 307              		.thumb
ARM GAS  /tmp/ccK3CPnQ.s 			page 6


 308              		.thumb_func
 309              		.fpu softvfp
 311              	HAL_SuspendTick:
 312              		@ args = 0, pretend = 0, frame = 0
 313              		@ frame_needed = 0, uses_anonymous_args = 0
 314              		@ link register save eliminated.
 315 0000 024A     		ldr	r2, .L53
 316 0002 1368     		ldr	r3, [r2]
 317 0004 23F00203 		bic	r3, r3, #2
 318 0008 1360     		str	r3, [r2]
 319 000a 7047     		bx	lr
 320              	.L54:
 321              		.align	2
 322              	.L53:
 323 000c 10E000E0 		.word	-536813552
 325              		.section	.text.HAL_ResumeTick,"ax",%progbits
 326              		.align	1
 327              		.p2align 2,,3
 328              		.weak	HAL_ResumeTick
 329              		.syntax unified
 330              		.thumb
 331              		.thumb_func
 332              		.fpu softvfp
 334              	HAL_ResumeTick:
 335              		@ args = 0, pretend = 0, frame = 0
 336              		@ frame_needed = 0, uses_anonymous_args = 0
 337              		@ link register save eliminated.
 338 0000 024A     		ldr	r2, .L56
 339 0002 1368     		ldr	r3, [r2]
 340 0004 43F00203 		orr	r3, r3, #2
 341 0008 1360     		str	r3, [r2]
 342 000a 7047     		bx	lr
 343              	.L57:
 344              		.align	2
 345              	.L56:
 346 000c 10E000E0 		.word	-536813552
 348              		.section	.text.HAL_GetHalVersion,"ax",%progbits
 349              		.align	1
 350              		.p2align 2,,3
 351              		.global	HAL_GetHalVersion
 352              		.syntax unified
 353              		.thumb
 354              		.thumb_func
 355              		.fpu softvfp
 357              	HAL_GetHalVersion:
 358              		@ args = 0, pretend = 0, frame = 0
 359              		@ frame_needed = 0, uses_anonymous_args = 0
 360              		@ link register save eliminated.
 361 0000 0048     		ldr	r0, .L59
 362 0002 7047     		bx	lr
 363              	.L60:
 364              		.align	2
 365              	.L59:
 366 0004 00080101 		.word	16844800
 368              		.section	.text.HAL_GetREVID,"ax",%progbits
 369              		.align	1
 370              		.p2align 2,,3
ARM GAS  /tmp/ccK3CPnQ.s 			page 7


 371              		.global	HAL_GetREVID
 372              		.syntax unified
 373              		.thumb
 374              		.thumb_func
 375              		.fpu softvfp
 377              	HAL_GetREVID:
 378              		@ args = 0, pretend = 0, frame = 0
 379              		@ frame_needed = 0, uses_anonymous_args = 0
 380              		@ link register save eliminated.
 381 0000 014B     		ldr	r3, .L62
 382 0002 1868     		ldr	r0, [r3]
 383 0004 000C     		lsrs	r0, r0, #16
 384 0006 7047     		bx	lr
 385              	.L63:
 386              		.align	2
 387              	.L62:
 388 0008 002004E0 		.word	-536600576
 390              		.section	.text.HAL_GetDEVID,"ax",%progbits
 391              		.align	1
 392              		.p2align 2,,3
 393              		.global	HAL_GetDEVID
 394              		.syntax unified
 395              		.thumb
 396              		.thumb_func
 397              		.fpu softvfp
 399              	HAL_GetDEVID:
 400              		@ args = 0, pretend = 0, frame = 0
 401              		@ frame_needed = 0, uses_anonymous_args = 0
 402              		@ link register save eliminated.
 403 0000 024B     		ldr	r3, .L65
 404 0002 1868     		ldr	r0, [r3]
 405 0004 C0F30B00 		ubfx	r0, r0, #0, #12
 406 0008 7047     		bx	lr
 407              	.L66:
 408 000a 00BF     		.align	2
 409              	.L65:
 410 000c 002004E0 		.word	-536600576
 412              		.section	.text.HAL_GetUIDw0,"ax",%progbits
 413              		.align	1
 414              		.p2align 2,,3
 415              		.global	HAL_GetUIDw0
 416              		.syntax unified
 417              		.thumb
 418              		.thumb_func
 419              		.fpu softvfp
 421              	HAL_GetUIDw0:
 422              		@ args = 0, pretend = 0, frame = 0
 423              		@ frame_needed = 0, uses_anonymous_args = 0
 424              		@ link register save eliminated.
 425 0000 014B     		ldr	r3, .L68
 426 0002 1868     		ldr	r0, [r3]
 427 0004 7047     		bx	lr
 428              	.L69:
 429 0006 00BF     		.align	2
 430              	.L68:
 431 0008 E8F7FF1F 		.word	536868840
 433              		.section	.text.HAL_GetUIDw1,"ax",%progbits
ARM GAS  /tmp/ccK3CPnQ.s 			page 8


 434              		.align	1
 435              		.p2align 2,,3
 436              		.global	HAL_GetUIDw1
 437              		.syntax unified
 438              		.thumb
 439              		.thumb_func
 440              		.fpu softvfp
 442              	HAL_GetUIDw1:
 443              		@ args = 0, pretend = 0, frame = 0
 444              		@ frame_needed = 0, uses_anonymous_args = 0
 445              		@ link register save eliminated.
 446 0000 014B     		ldr	r3, .L71
 447 0002 1868     		ldr	r0, [r3]
 448 0004 7047     		bx	lr
 449              	.L72:
 450 0006 00BF     		.align	2
 451              	.L71:
 452 0008 ECF7FF1F 		.word	536868844
 454              		.section	.text.HAL_GetUIDw2,"ax",%progbits
 455              		.align	1
 456              		.p2align 2,,3
 457              		.global	HAL_GetUIDw2
 458              		.syntax unified
 459              		.thumb
 460              		.thumb_func
 461              		.fpu softvfp
 463              	HAL_GetUIDw2:
 464              		@ args = 0, pretend = 0, frame = 0
 465              		@ frame_needed = 0, uses_anonymous_args = 0
 466              		@ link register save eliminated.
 467 0000 014B     		ldr	r3, .L74
 468 0002 1868     		ldr	r0, [r3]
 469 0004 7047     		bx	lr
 470              	.L75:
 471 0006 00BF     		.align	2
 472              	.L74:
 473 0008 F0F7FF1F 		.word	536868848
 475              		.section	.text.HAL_DBGMCU_EnableDBGSleepMode,"ax",%progbits
 476              		.align	1
 477              		.p2align 2,,3
 478              		.global	HAL_DBGMCU_EnableDBGSleepMode
 479              		.syntax unified
 480              		.thumb
 481              		.thumb_func
 482              		.fpu softvfp
 484              	HAL_DBGMCU_EnableDBGSleepMode:
 485              		@ args = 0, pretend = 0, frame = 0
 486              		@ frame_needed = 0, uses_anonymous_args = 0
 487              		@ link register save eliminated.
 488 0000 024A     		ldr	r2, .L77
 489 0002 5368     		ldr	r3, [r2, #4]
 490 0004 43F00103 		orr	r3, r3, #1
 491 0008 5360     		str	r3, [r2, #4]
 492 000a 7047     		bx	lr
 493              	.L78:
 494              		.align	2
 495              	.L77:
ARM GAS  /tmp/ccK3CPnQ.s 			page 9


 496 000c 002004E0 		.word	-536600576
 498              		.section	.text.HAL_DBGMCU_DisableDBGSleepMode,"ax",%progbits
 499              		.align	1
 500              		.p2align 2,,3
 501              		.global	HAL_DBGMCU_DisableDBGSleepMode
 502              		.syntax unified
 503              		.thumb
 504              		.thumb_func
 505              		.fpu softvfp
 507              	HAL_DBGMCU_DisableDBGSleepMode:
 508              		@ args = 0, pretend = 0, frame = 0
 509              		@ frame_needed = 0, uses_anonymous_args = 0
 510              		@ link register save eliminated.
 511 0000 024A     		ldr	r2, .L80
 512 0002 5368     		ldr	r3, [r2, #4]
 513 0004 23F00103 		bic	r3, r3, #1
 514 0008 5360     		str	r3, [r2, #4]
 515 000a 7047     		bx	lr
 516              	.L81:
 517              		.align	2
 518              	.L80:
 519 000c 002004E0 		.word	-536600576
 521              		.section	.text.HAL_DBGMCU_EnableDBGStopMode,"ax",%progbits
 522              		.align	1
 523              		.p2align 2,,3
 524              		.global	HAL_DBGMCU_EnableDBGStopMode
 525              		.syntax unified
 526              		.thumb
 527              		.thumb_func
 528              		.fpu softvfp
 530              	HAL_DBGMCU_EnableDBGStopMode:
 531              		@ args = 0, pretend = 0, frame = 0
 532              		@ frame_needed = 0, uses_anonymous_args = 0
 533              		@ link register save eliminated.
 534 0000 024A     		ldr	r2, .L83
 535 0002 5368     		ldr	r3, [r2, #4]
 536 0004 43F00203 		orr	r3, r3, #2
 537 0008 5360     		str	r3, [r2, #4]
 538 000a 7047     		bx	lr
 539              	.L84:
 540              		.align	2
 541              	.L83:
 542 000c 002004E0 		.word	-536600576
 544              		.section	.text.HAL_DBGMCU_DisableDBGStopMode,"ax",%progbits
 545              		.align	1
 546              		.p2align 2,,3
 547              		.global	HAL_DBGMCU_DisableDBGStopMode
 548              		.syntax unified
 549              		.thumb
 550              		.thumb_func
 551              		.fpu softvfp
 553              	HAL_DBGMCU_DisableDBGStopMode:
 554              		@ args = 0, pretend = 0, frame = 0
 555              		@ frame_needed = 0, uses_anonymous_args = 0
 556              		@ link register save eliminated.
 557 0000 024A     		ldr	r2, .L86
 558 0002 5368     		ldr	r3, [r2, #4]
ARM GAS  /tmp/ccK3CPnQ.s 			page 10


 559 0004 23F00203 		bic	r3, r3, #2
 560 0008 5360     		str	r3, [r2, #4]
 561 000a 7047     		bx	lr
 562              	.L87:
 563              		.align	2
 564              	.L86:
 565 000c 002004E0 		.word	-536600576
 567              		.section	.text.HAL_DBGMCU_EnableDBGStandbyMode,"ax",%progbits
 568              		.align	1
 569              		.p2align 2,,3
 570              		.global	HAL_DBGMCU_EnableDBGStandbyMode
 571              		.syntax unified
 572              		.thumb
 573              		.thumb_func
 574              		.fpu softvfp
 576              	HAL_DBGMCU_EnableDBGStandbyMode:
 577              		@ args = 0, pretend = 0, frame = 0
 578              		@ frame_needed = 0, uses_anonymous_args = 0
 579              		@ link register save eliminated.
 580 0000 024A     		ldr	r2, .L89
 581 0002 5368     		ldr	r3, [r2, #4]
 582 0004 43F00403 		orr	r3, r3, #4
 583 0008 5360     		str	r3, [r2, #4]
 584 000a 7047     		bx	lr
 585              	.L90:
 586              		.align	2
 587              	.L89:
 588 000c 002004E0 		.word	-536600576
 590              		.section	.text.HAL_DBGMCU_DisableDBGStandbyMode,"ax",%progbits
 591              		.align	1
 592              		.p2align 2,,3
 593              		.global	HAL_DBGMCU_DisableDBGStandbyMode
 594              		.syntax unified
 595              		.thumb
 596              		.thumb_func
 597              		.fpu softvfp
 599              	HAL_DBGMCU_DisableDBGStandbyMode:
 600              		@ args = 0, pretend = 0, frame = 0
 601              		@ frame_needed = 0, uses_anonymous_args = 0
 602              		@ link register save eliminated.
 603 0000 024A     		ldr	r2, .L92
 604 0002 5368     		ldr	r3, [r2, #4]
 605 0004 23F00403 		bic	r3, r3, #4
 606 0008 5360     		str	r3, [r2, #4]
 607 000a 7047     		bx	lr
 608              	.L93:
 609              		.align	2
 610              	.L92:
 611 000c 002004E0 		.word	-536600576
 613              		.global	uwTickFreq
 614              		.global	uwTickPrio
 615              		.comm	uwTick,4,4
 616              		.section	.data.uwTickFreq,"aw"
 617              		.set	.LANCHOR0,. + 0
 620              	uwTickFreq:
 621 0000 01       		.byte	1
 622              		.section	.data.uwTickPrio,"aw"
ARM GAS  /tmp/ccK3CPnQ.s 			page 11


 623              		.align	2
 624              		.set	.LANCHOR1,. + 0
 627              	uwTickPrio:
 628 0000 10000000 		.word	16
 629              		.ident	"GCC: (15:9-2019-q4-0ubuntu1) 9.2.1 20191025 (release) [ARM/arm-9-branch revision 277599]"
ARM GAS  /tmp/ccK3CPnQ.s 			page 12

