ARM GAS  /tmp/ccyfIIMc.s 			page 1


   1              		.cpu cortex-m3
   2              		.eabi_attribute 20, 1
   3              		.eabi_attribute 21, 1
   4              		.eabi_attribute 23, 3
   5              		.eabi_attribute 24, 1
   6              		.eabi_attribute 25, 1
   7              		.eabi_attribute 26, 1
   8              		.eabi_attribute 30, 2
   9              		.eabi_attribute 34, 1
  10              		.eabi_attribute 18, 4
  11              		.file	"stm32f1xx_hal_pwr.c"
  12              		.text
  13              		.section	.text.PWR_OverloadWfe,"ax",%progbits
  14              		.align	1
  15              		.p2align 2,,3
  16              		.arch armv7-m
  17              		.syntax unified
  18              		.thumb
  19              		.thumb_func
  20              		.fpu softvfp
  22              	PWR_OverloadWfe:
  23              		@ args = 0, pretend = 0, frame = 0
  24              		@ frame_needed = 0, uses_anonymous_args = 0
  25              		@ link register save eliminated.
  26              		.syntax unified
  27              	@ 119 "Drivers/STM32F1xx_HAL_Driver/Src/stm32f1xx_hal_pwr.c" 1
  28 0000 20BF     		wfe
  29              	@ 0 "" 2
  30              	@ 120 "Drivers/STM32F1xx_HAL_Driver/Src/stm32f1xx_hal_pwr.c" 1
  31 0002 00BF     		nop
  32              	@ 0 "" 2
  33              		.thumb
  34              		.syntax unified
  35 0004 7047     		bx	lr
  37 0006 00BF     		.section	.text.HAL_PWR_DeInit,"ax",%progbits
  38              		.align	1
  39              		.p2align 2,,3
  40              		.global	HAL_PWR_DeInit
  41              		.syntax unified
  42              		.thumb
  43              		.thumb_func
  44              		.fpu softvfp
  46              	HAL_PWR_DeInit:
  47              		@ args = 0, pretend = 0, frame = 0
  48              		@ frame_needed = 0, uses_anonymous_args = 0
  49              		@ link register save eliminated.
  50 0000 044B     		ldr	r3, .L4
  51 0002 1A69     		ldr	r2, [r3, #16]
  52 0004 42F08052 		orr	r2, r2, #268435456
  53 0008 1A61     		str	r2, [r3, #16]
  54 000a 1A69     		ldr	r2, [r3, #16]
  55 000c 22F08052 		bic	r2, r2, #268435456
  56 0010 1A61     		str	r2, [r3, #16]
  57 0012 7047     		bx	lr
  58              	.L5:
  59              		.align	2
  60              	.L4:
ARM GAS  /tmp/ccyfIIMc.s 			page 2


  61 0014 00100240 		.word	1073876992
  63              		.section	.text.HAL_PWR_EnableBkUpAccess,"ax",%progbits
  64              		.align	1
  65              		.p2align 2,,3
  66              		.global	HAL_PWR_EnableBkUpAccess
  67              		.syntax unified
  68              		.thumb
  69              		.thumb_func
  70              		.fpu softvfp
  72              	HAL_PWR_EnableBkUpAccess:
  73              		@ args = 0, pretend = 0, frame = 0
  74              		@ frame_needed = 0, uses_anonymous_args = 0
  75              		@ link register save eliminated.
  76 0000 0122     		movs	r2, #1
  77 0002 014B     		ldr	r3, .L7
  78 0004 1A60     		str	r2, [r3]
  79 0006 7047     		bx	lr
  80              	.L8:
  81              		.align	2
  82              	.L7:
  83 0008 20000E42 		.word	1108213792
  85              		.section	.text.HAL_PWR_DisableBkUpAccess,"ax",%progbits
  86              		.align	1
  87              		.p2align 2,,3
  88              		.global	HAL_PWR_DisableBkUpAccess
  89              		.syntax unified
  90              		.thumb
  91              		.thumb_func
  92              		.fpu softvfp
  94              	HAL_PWR_DisableBkUpAccess:
  95              		@ args = 0, pretend = 0, frame = 0
  96              		@ frame_needed = 0, uses_anonymous_args = 0
  97              		@ link register save eliminated.
  98 0000 0022     		movs	r2, #0
  99 0002 014B     		ldr	r3, .L10
 100 0004 1A60     		str	r2, [r3]
 101 0006 7047     		bx	lr
 102              	.L11:
 103              		.align	2
 104              	.L10:
 105 0008 20000E42 		.word	1108213792
 107              		.section	.text.HAL_PWR_ConfigPVD,"ax",%progbits
 108              		.align	1
 109              		.p2align 2,,3
 110              		.global	HAL_PWR_ConfigPVD
 111              		.syntax unified
 112              		.thumb
 113              		.thumb_func
 114              		.fpu softvfp
 116              	HAL_PWR_ConfigPVD:
 117              		@ args = 0, pretend = 0, frame = 0
 118              		@ frame_needed = 0, uses_anonymous_args = 0
 119              		@ link register save eliminated.
 120 0000 1B49     		ldr	r1, .L30
 121 0002 10B4     		push	{r4}
 122 0004 0A68     		ldr	r2, [r1]
 123 0006 0468     		ldr	r4, [r0]
ARM GAS  /tmp/ccyfIIMc.s 			page 3


 124 0008 22F0E002 		bic	r2, r2, #224
 125 000c 194B     		ldr	r3, .L30+4
 126 000e 2243     		orrs	r2, r2, r4
 127 0010 0A60     		str	r2, [r1]
 128 0012 5A68     		ldr	r2, [r3, #4]
 129 0014 22F48032 		bic	r2, r2, #65536
 130 0018 5A60     		str	r2, [r3, #4]
 131 001a 1A68     		ldr	r2, [r3]
 132 001c 22F48032 		bic	r2, r2, #65536
 133 0020 1A60     		str	r2, [r3]
 134 0022 DA68     		ldr	r2, [r3, #12]
 135 0024 22F48032 		bic	r2, r2, #65536
 136 0028 DA60     		str	r2, [r3, #12]
 137 002a 9A68     		ldr	r2, [r3, #8]
 138 002c 22F48032 		bic	r2, r2, #65536
 139 0030 9A60     		str	r2, [r3, #8]
 140 0032 4268     		ldr	r2, [r0, #4]
 141 0034 D403     		lsls	r4, r2, #15
 142 0036 03D5     		bpl	.L13
 143 0038 1968     		ldr	r1, [r3]
 144 003a 41F48031 		orr	r1, r1, #65536
 145 003e 1960     		str	r1, [r3]
 146              	.L13:
 147 0040 9003     		lsls	r0, r2, #14
 148 0042 04D5     		bpl	.L14
 149 0044 0B49     		ldr	r1, .L30+4
 150 0046 4B68     		ldr	r3, [r1, #4]
 151 0048 43F48033 		orr	r3, r3, #65536
 152 004c 4B60     		str	r3, [r1, #4]
 153              	.L14:
 154 004e D107     		lsls	r1, r2, #31
 155 0050 04D5     		bpl	.L15
 156 0052 0849     		ldr	r1, .L30+4
 157 0054 8B68     		ldr	r3, [r1, #8]
 158 0056 43F48033 		orr	r3, r3, #65536
 159 005a 8B60     		str	r3, [r1, #8]
 160              	.L15:
 161 005c 9307     		lsls	r3, r2, #30
 162 005e 04D5     		bpl	.L12
 163 0060 044A     		ldr	r2, .L30+4
 164 0062 D368     		ldr	r3, [r2, #12]
 165 0064 43F48033 		orr	r3, r3, #65536
 166 0068 D360     		str	r3, [r2, #12]
 167              	.L12:
 168 006a 10BC     		pop	{r4}
 169 006c 7047     		bx	lr
 170              	.L31:
 171 006e 00BF     		.align	2
 172              	.L30:
 173 0070 00700040 		.word	1073770496
 174 0074 00040140 		.word	1073808384
 176              		.section	.text.HAL_PWR_EnablePVD,"ax",%progbits
 177              		.align	1
 178              		.p2align 2,,3
 179              		.global	HAL_PWR_EnablePVD
 180              		.syntax unified
 181              		.thumb
ARM GAS  /tmp/ccyfIIMc.s 			page 4


 182              		.thumb_func
 183              		.fpu softvfp
 185              	HAL_PWR_EnablePVD:
 186              		@ args = 0, pretend = 0, frame = 0
 187              		@ frame_needed = 0, uses_anonymous_args = 0
 188              		@ link register save eliminated.
 189 0000 0122     		movs	r2, #1
 190 0002 014B     		ldr	r3, .L33
 191 0004 1A60     		str	r2, [r3]
 192 0006 7047     		bx	lr
 193              	.L34:
 194              		.align	2
 195              	.L33:
 196 0008 10000E42 		.word	1108213776
 198              		.section	.text.HAL_PWR_DisablePVD,"ax",%progbits
 199              		.align	1
 200              		.p2align 2,,3
 201              		.global	HAL_PWR_DisablePVD
 202              		.syntax unified
 203              		.thumb
 204              		.thumb_func
 205              		.fpu softvfp
 207              	HAL_PWR_DisablePVD:
 208              		@ args = 0, pretend = 0, frame = 0
 209              		@ frame_needed = 0, uses_anonymous_args = 0
 210              		@ link register save eliminated.
 211 0000 0022     		movs	r2, #0
 212 0002 014B     		ldr	r3, .L36
 213 0004 1A60     		str	r2, [r3]
 214 0006 7047     		bx	lr
 215              	.L37:
 216              		.align	2
 217              	.L36:
 218 0008 10000E42 		.word	1108213776
 220              		.section	.text.HAL_PWR_EnableWakeUpPin,"ax",%progbits
 221              		.align	1
 222              		.p2align 2,,3
 223              		.global	HAL_PWR_EnableWakeUpPin
 224              		.syntax unified
 225              		.thumb
 226              		.thumb_func
 227              		.fpu softvfp
 229              	HAL_PWR_EnableWakeUpPin:
 230              		@ args = 0, pretend = 0, frame = 0
 231              		@ frame_needed = 0, uses_anonymous_args = 0
 232              		@ link register save eliminated.
 233              		.syntax unified
 234              	@ 988 "Drivers/CMSIS/Include/cmsis_gcc.h" 1
 235 0000 90FAA0F0 		rbit r0, r0
 236              	@ 0 "" 2
 237              		.thumb
 238              		.syntax unified
 239 0004 B0FA80F0 		clz	r0, r0
 240 0008 0122     		movs	r2, #1
 241 000a 024B     		ldr	r3, .L39
 242 000c 0344     		add	r3, r3, r0
 243 000e 9B00     		lsls	r3, r3, #2
ARM GAS  /tmp/ccyfIIMc.s 			page 5


 244 0010 1A60     		str	r2, [r3]
 245 0012 7047     		bx	lr
 246              	.L40:
 247              		.align	2
 248              	.L39:
 249 0014 20808310 		.word	277053472
 251              		.section	.text.HAL_PWR_DisableWakeUpPin,"ax",%progbits
 252              		.align	1
 253              		.p2align 2,,3
 254              		.global	HAL_PWR_DisableWakeUpPin
 255              		.syntax unified
 256              		.thumb
 257              		.thumb_func
 258              		.fpu softvfp
 260              	HAL_PWR_DisableWakeUpPin:
 261              		@ args = 0, pretend = 0, frame = 0
 262              		@ frame_needed = 0, uses_anonymous_args = 0
 263              		@ link register save eliminated.
 264              		.syntax unified
 265              	@ 988 "Drivers/CMSIS/Include/cmsis_gcc.h" 1
 266 0000 90FAA0F0 		rbit r0, r0
 267              	@ 0 "" 2
 268              		.thumb
 269              		.syntax unified
 270 0004 B0FA80F0 		clz	r0, r0
 271 0008 0022     		movs	r2, #0
 272 000a 024B     		ldr	r3, .L42
 273 000c 0344     		add	r3, r3, r0
 274 000e 9B00     		lsls	r3, r3, #2
 275 0010 1A60     		str	r2, [r3]
 276 0012 7047     		bx	lr
 277              	.L43:
 278              		.align	2
 279              	.L42:
 280 0014 20808310 		.word	277053472
 282              		.section	.text.HAL_PWR_EnterSLEEPMode,"ax",%progbits
 283              		.align	1
 284              		.p2align 2,,3
 285              		.global	HAL_PWR_EnterSLEEPMode
 286              		.syntax unified
 287              		.thumb
 288              		.thumb_func
 289              		.fpu softvfp
 291              	HAL_PWR_EnterSLEEPMode:
 292              		@ args = 0, pretend = 0, frame = 0
 293              		@ frame_needed = 0, uses_anonymous_args = 0
 294              		@ link register save eliminated.
 295 0000 064A     		ldr	r2, .L48
 296 0002 0129     		cmp	r1, #1
 297 0004 1369     		ldr	r3, [r2, #16]
 298 0006 23F00403 		bic	r3, r3, #4
 299 000a 1361     		str	r3, [r2, #16]
 300 000c 03D0     		beq	.L47
 301              		.syntax unified
 302              	@ 438 "Drivers/STM32F1xx_HAL_Driver/Src/stm32f1xx_hal_pwr.c" 1
 303 000e 40BF     		sev
 304              	@ 0 "" 2
ARM GAS  /tmp/ccyfIIMc.s 			page 6


 305              	@ 439 "Drivers/STM32F1xx_HAL_Driver/Src/stm32f1xx_hal_pwr.c" 1
 306 0010 20BF     		wfe
 307              	@ 0 "" 2
 308              	@ 440 "Drivers/STM32F1xx_HAL_Driver/Src/stm32f1xx_hal_pwr.c" 1
 309 0012 20BF     		wfe
 310              	@ 0 "" 2
 311              		.thumb
 312              		.syntax unified
 313 0014 7047     		bx	lr
 314              	.L47:
 315              		.syntax unified
 316              	@ 433 "Drivers/STM32F1xx_HAL_Driver/Src/stm32f1xx_hal_pwr.c" 1
 317 0016 30BF     		wfi
 318              	@ 0 "" 2
 319              		.thumb
 320              		.syntax unified
 321 0018 7047     		bx	lr
 322              	.L49:
 323 001a 00BF     		.align	2
 324              	.L48:
 325 001c 00ED00E0 		.word	-536810240
 327              		.section	.text.HAL_PWR_EnterSTOPMode,"ax",%progbits
 328              		.align	1
 329              		.p2align 2,,3
 330              		.global	HAL_PWR_EnterSTOPMode
 331              		.syntax unified
 332              		.thumb
 333              		.thumb_func
 334              		.fpu softvfp
 336              	HAL_PWR_EnterSTOPMode:
 337              		@ args = 0, pretend = 0, frame = 0
 338              		@ frame_needed = 0, uses_anonymous_args = 0
 339 0000 0F4A     		ldr	r2, .L54
 340 0002 38B5     		push	{r3, r4, r5, lr}
 341 0004 1468     		ldr	r4, [r2]
 342 0006 0F4D     		ldr	r5, .L54+4
 343 0008 24F00204 		bic	r4, r4, #2
 344 000c 1460     		str	r4, [r2]
 345 000e 1368     		ldr	r3, [r2]
 346 0010 0129     		cmp	r1, #1
 347 0012 23F00103 		bic	r3, r3, #1
 348 0016 43EA0003 		orr	r3, r3, r0
 349 001a 1360     		str	r3, [r2]
 350 001c 2B69     		ldr	r3, [r5, #16]
 351 001e 43F00403 		orr	r3, r3, #4
 352 0022 2B61     		str	r3, [r5, #16]
 353 0024 06D1     		bne	.L51
 354              		.syntax unified
 355              	@ 482 "Drivers/STM32F1xx_HAL_Driver/Src/stm32f1xx_hal_pwr.c" 1
 356 0026 30BF     		wfi
 357              	@ 0 "" 2
 358              		.thumb
 359              		.syntax unified
 360              	.L52:
 361 0028 064A     		ldr	r2, .L54+4
 362 002a 1369     		ldr	r3, [r2, #16]
 363 002c 23F00403 		bic	r3, r3, #4
ARM GAS  /tmp/ccyfIIMc.s 			page 7


 364 0030 1361     		str	r3, [r2, #16]
 365 0032 38BD     		pop	{r3, r4, r5, pc}
 366              	.L51:
 367              		.syntax unified
 368              	@ 487 "Drivers/STM32F1xx_HAL_Driver/Src/stm32f1xx_hal_pwr.c" 1
 369 0034 40BF     		sev
 370              	@ 0 "" 2
 371              		.thumb
 372              		.syntax unified
 373 0036 FFF7FEFF 		bl	PWR_OverloadWfe
 374 003a FFF7FEFF 		bl	PWR_OverloadWfe
 375 003e F3E7     		b	.L52
 376              	.L55:
 377              		.align	2
 378              	.L54:
 379 0040 00700040 		.word	1073770496
 380 0044 00ED00E0 		.word	-536810240
 382              		.section	.text.HAL_PWR_EnterSTANDBYMode,"ax",%progbits
 383              		.align	1
 384              		.p2align 2,,3
 385              		.global	HAL_PWR_EnterSTANDBYMode
 386              		.syntax unified
 387              		.thumb
 388              		.thumb_func
 389              		.fpu softvfp
 391              	HAL_PWR_EnterSTANDBYMode:
 392              		@ args = 0, pretend = 0, frame = 0
 393              		@ frame_needed = 0, uses_anonymous_args = 0
 394              		@ link register save eliminated.
 395 0000 0549     		ldr	r1, .L57
 396 0002 064A     		ldr	r2, .L57+4
 397 0004 0B68     		ldr	r3, [r1]
 398 0006 43F00203 		orr	r3, r3, #2
 399 000a 0B60     		str	r3, [r1]
 400 000c 1369     		ldr	r3, [r2, #16]
 401 000e 43F00403 		orr	r3, r3, #4
 402 0012 1361     		str	r3, [r2, #16]
 403              		.syntax unified
 404              	@ 516 "Drivers/STM32F1xx_HAL_Driver/Src/stm32f1xx_hal_pwr.c" 1
 405 0014 30BF     		wfi
 406              	@ 0 "" 2
 407              		.thumb
 408              		.syntax unified
 409 0016 7047     		bx	lr
 410              	.L58:
 411              		.align	2
 412              	.L57:
 413 0018 00700040 		.word	1073770496
 414 001c 00ED00E0 		.word	-536810240
 416              		.section	.text.HAL_PWR_EnableSleepOnExit,"ax",%progbits
 417              		.align	1
 418              		.p2align 2,,3
 419              		.global	HAL_PWR_EnableSleepOnExit
 420              		.syntax unified
 421              		.thumb
 422              		.thumb_func
 423              		.fpu softvfp
ARM GAS  /tmp/ccyfIIMc.s 			page 8


 425              	HAL_PWR_EnableSleepOnExit:
 426              		@ args = 0, pretend = 0, frame = 0
 427              		@ frame_needed = 0, uses_anonymous_args = 0
 428              		@ link register save eliminated.
 429 0000 024A     		ldr	r2, .L60
 430 0002 1369     		ldr	r3, [r2, #16]
 431 0004 43F00203 		orr	r3, r3, #2
 432 0008 1361     		str	r3, [r2, #16]
 433 000a 7047     		bx	lr
 434              	.L61:
 435              		.align	2
 436              	.L60:
 437 000c 00ED00E0 		.word	-536810240
 439              		.section	.text.HAL_PWR_DisableSleepOnExit,"ax",%progbits
 440              		.align	1
 441              		.p2align 2,,3
 442              		.global	HAL_PWR_DisableSleepOnExit
 443              		.syntax unified
 444              		.thumb
 445              		.thumb_func
 446              		.fpu softvfp
 448              	HAL_PWR_DisableSleepOnExit:
 449              		@ args = 0, pretend = 0, frame = 0
 450              		@ frame_needed = 0, uses_anonymous_args = 0
 451              		@ link register save eliminated.
 452 0000 024A     		ldr	r2, .L63
 453 0002 1369     		ldr	r3, [r2, #16]
 454 0004 23F00203 		bic	r3, r3, #2
 455 0008 1361     		str	r3, [r2, #16]
 456 000a 7047     		bx	lr
 457              	.L64:
 458              		.align	2
 459              	.L63:
 460 000c 00ED00E0 		.word	-536810240
 462              		.section	.text.HAL_PWR_EnableSEVOnPend,"ax",%progbits
 463              		.align	1
 464              		.p2align 2,,3
 465              		.global	HAL_PWR_EnableSEVOnPend
 466              		.syntax unified
 467              		.thumb
 468              		.thumb_func
 469              		.fpu softvfp
 471              	HAL_PWR_EnableSEVOnPend:
 472              		@ args = 0, pretend = 0, frame = 0
 473              		@ frame_needed = 0, uses_anonymous_args = 0
 474              		@ link register save eliminated.
 475 0000 024A     		ldr	r2, .L66
 476 0002 1369     		ldr	r3, [r2, #16]
 477 0004 43F01003 		orr	r3, r3, #16
 478 0008 1361     		str	r3, [r2, #16]
 479 000a 7047     		bx	lr
 480              	.L67:
 481              		.align	2
 482              	.L66:
 483 000c 00ED00E0 		.word	-536810240
 485              		.section	.text.HAL_PWR_DisableSEVOnPend,"ax",%progbits
 486              		.align	1
ARM GAS  /tmp/ccyfIIMc.s 			page 9


 487              		.p2align 2,,3
 488              		.global	HAL_PWR_DisableSEVOnPend
 489              		.syntax unified
 490              		.thumb
 491              		.thumb_func
 492              		.fpu softvfp
 494              	HAL_PWR_DisableSEVOnPend:
 495              		@ args = 0, pretend = 0, frame = 0
 496              		@ frame_needed = 0, uses_anonymous_args = 0
 497              		@ link register save eliminated.
 498 0000 024A     		ldr	r2, .L69
 499 0002 1369     		ldr	r3, [r2, #16]
 500 0004 23F01003 		bic	r3, r3, #16
 501 0008 1361     		str	r3, [r2, #16]
 502 000a 7047     		bx	lr
 503              	.L70:
 504              		.align	2
 505              	.L69:
 506 000c 00ED00E0 		.word	-536810240
 508              		.section	.text.HAL_PWR_PVDCallback,"ax",%progbits
 509              		.align	1
 510              		.p2align 2,,3
 511              		.weak	HAL_PWR_PVDCallback
 512              		.syntax unified
 513              		.thumb
 514              		.thumb_func
 515              		.fpu softvfp
 517              	HAL_PWR_PVDCallback:
 518              		@ args = 0, pretend = 0, frame = 0
 519              		@ frame_needed = 0, uses_anonymous_args = 0
 520              		@ link register save eliminated.
 521 0000 7047     		bx	lr
 523 0002 00BF     		.section	.text.HAL_PWR_PVD_IRQHandler,"ax",%progbits
 524              		.align	1
 525              		.p2align 2,,3
 526              		.global	HAL_PWR_PVD_IRQHandler
 527              		.syntax unified
 528              		.thumb
 529              		.thumb_func
 530              		.fpu softvfp
 532              	HAL_PWR_PVD_IRQHandler:
 533              		@ args = 0, pretend = 0, frame = 0
 534              		@ frame_needed = 0, uses_anonymous_args = 0
 535 0000 10B5     		push	{r4, lr}
 536 0002 054C     		ldr	r4, .L79
 537 0004 6369     		ldr	r3, [r4, #20]
 538 0006 DB03     		lsls	r3, r3, #15
 539 0008 00D4     		bmi	.L78
 540 000a 10BD     		pop	{r4, pc}
 541              	.L78:
 542 000c FFF7FEFF 		bl	HAL_PWR_PVDCallback
 543 0010 4FF48033 		mov	r3, #65536
 544 0014 6361     		str	r3, [r4, #20]
 545 0016 10BD     		pop	{r4, pc}
 546              	.L80:
 547              		.align	2
 548              	.L79:
ARM GAS  /tmp/ccyfIIMc.s 			page 10


 549 0018 00040140 		.word	1073808384
 551              		.ident	"GCC: (15:9-2019-q4-0ubuntu1) 9.2.1 20191025 (release) [ARM/arm-9-branch revision 277599]"
ARM GAS  /tmp/ccyfIIMc.s 			page 11

