ARM GAS  /tmp/ccPo3q3S.s 			page 1


   1              		.cpu cortex-m3
   2              		.eabi_attribute 20, 1
   3              		.eabi_attribute 21, 1
   4              		.eabi_attribute 23, 3
   5              		.eabi_attribute 24, 1
   6              		.eabi_attribute 25, 1
   7              		.eabi_attribute 26, 1
   8              		.eabi_attribute 30, 1
   9              		.eabi_attribute 34, 1
  10              		.eabi_attribute 18, 4
  11              		.file	"stm32f1xx_hal_rcc_ex.c"
  12              		.text
  13              		.section	.text.HAL_RCCEx_PeriphCLKConfig,"ax",%progbits
  14              		.align	1
  15              		.global	HAL_RCCEx_PeriphCLKConfig
  16              		.arch armv7-m
  17              		.syntax unified
  18              		.thumb
  19              		.thumb_func
  20              		.fpu softvfp
  22              	HAL_RCCEx_PeriphCLKConfig:
  23              		@ args = 0, pretend = 0, frame = 8
  24              		@ frame_needed = 0, uses_anonymous_args = 0
  25 0000 70B5     		push	{r4, r5, r6, lr}
  26 0002 82B0     		sub	sp, sp, #8
  27 0004 0446     		mov	r4, r0
  28 0006 0368     		ldr	r3, [r0]
  29 0008 13F0010F 		tst	r3, #1
  30 000c 34D0     		beq	.L2
  31 000e 3E4B     		ldr	r3, .L20
  32 0010 DB69     		ldr	r3, [r3, #28]
  33 0012 13F0805F 		tst	r3, #268435456
  34 0016 47D1     		bne	.L12
  35 0018 3B4B     		ldr	r3, .L20
  36 001a DA69     		ldr	r2, [r3, #28]
  37 001c 42F08052 		orr	r2, r2, #268435456
  38 0020 DA61     		str	r2, [r3, #28]
  39 0022 DB69     		ldr	r3, [r3, #28]
  40 0024 03F08053 		and	r3, r3, #268435456
  41 0028 0193     		str	r3, [sp, #4]
  42 002a 019B     		ldr	r3, [sp, #4]
  43 002c 0125     		movs	r5, #1
  44              	.L3:
  45 002e 374B     		ldr	r3, .L20+4
  46 0030 1B68     		ldr	r3, [r3]
  47 0032 13F4807F 		tst	r3, #256
  48 0036 39D0     		beq	.L17
  49              	.L4:
  50 0038 334B     		ldr	r3, .L20
  51 003a 1B6A     		ldr	r3, [r3, #32]
  52 003c 13F44073 		ands	r3, r3, #768
  53 0040 11D0     		beq	.L8
  54 0042 6268     		ldr	r2, [r4, #4]
  55 0044 02F44072 		and	r2, r2, #768
  56 0048 9A42     		cmp	r2, r3
  57 004a 0CD0     		beq	.L8
  58 004c 2E4A     		ldr	r2, .L20
ARM GAS  /tmp/ccPo3q3S.s 			page 2


  59 004e 136A     		ldr	r3, [r2, #32]
  60 0050 23F44070 		bic	r0, r3, #768
  61 0054 2E49     		ldr	r1, .L20+8
  62 0056 0126     		movs	r6, #1
  63 0058 0E60     		str	r6, [r1]
  64 005a 0026     		movs	r6, #0
  65 005c 0E60     		str	r6, [r1]
  66 005e 1062     		str	r0, [r2, #32]
  67 0060 13F0010F 		tst	r3, #1
  68 0064 36D1     		bne	.L18
  69              	.L8:
  70 0066 284A     		ldr	r2, .L20
  71 0068 136A     		ldr	r3, [r2, #32]
  72 006a 23F44073 		bic	r3, r3, #768
  73 006e 6168     		ldr	r1, [r4, #4]
  74 0070 0B43     		orrs	r3, r3, r1
  75 0072 1362     		str	r3, [r2, #32]
  76 0074 002D     		cmp	r5, #0
  77 0076 3ED1     		bne	.L19
  78              	.L2:
  79 0078 2368     		ldr	r3, [r4]
  80 007a 13F0020F 		tst	r3, #2
  81 007e 06D0     		beq	.L11
  82 0080 214A     		ldr	r2, .L20
  83 0082 5368     		ldr	r3, [r2, #4]
  84 0084 23F44043 		bic	r3, r3, #49152
  85 0088 A168     		ldr	r1, [r4, #8]
  86 008a 0B43     		orrs	r3, r3, r1
  87 008c 5360     		str	r3, [r2, #4]
  88              	.L11:
  89 008e 2368     		ldr	r3, [r4]
  90 0090 13F0100F 		tst	r3, #16
  91 0094 34D0     		beq	.L15
  92 0096 1C4A     		ldr	r2, .L20
  93 0098 5368     		ldr	r3, [r2, #4]
  94 009a 23F48003 		bic	r3, r3, #4194304
  95 009e E168     		ldr	r1, [r4, #12]
  96 00a0 0B43     		orrs	r3, r3, r1
  97 00a2 5360     		str	r3, [r2, #4]
  98 00a4 0020     		movs	r0, #0
  99 00a6 2CE0     		b	.L6
 100              	.L12:
 101 00a8 0025     		movs	r5, #0
 102 00aa C0E7     		b	.L3
 103              	.L17:
 104 00ac 174A     		ldr	r2, .L20+4
 105 00ae 1368     		ldr	r3, [r2]
 106 00b0 43F48073 		orr	r3, r3, #256
 107 00b4 1360     		str	r3, [r2]
 108 00b6 FFF7FEFF 		bl	HAL_GetTick
 109 00ba 0646     		mov	r6, r0
 110              	.L5:
 111 00bc 134B     		ldr	r3, .L20+4
 112 00be 1B68     		ldr	r3, [r3]
 113 00c0 13F4807F 		tst	r3, #256
 114 00c4 B8D1     		bne	.L4
 115 00c6 FFF7FEFF 		bl	HAL_GetTick
ARM GAS  /tmp/ccPo3q3S.s 			page 3


 116 00ca 801B     		subs	r0, r0, r6
 117 00cc 6428     		cmp	r0, #100
 118 00ce F5D9     		bls	.L5
 119 00d0 0320     		movs	r0, #3
 120 00d2 16E0     		b	.L6
 121              	.L18:
 122 00d4 FFF7FEFF 		bl	HAL_GetTick
 123 00d8 0646     		mov	r6, r0
 124              	.L9:
 125 00da 0B4B     		ldr	r3, .L20
 126 00dc 1B6A     		ldr	r3, [r3, #32]
 127 00de 13F0020F 		tst	r3, #2
 128 00e2 C0D1     		bne	.L8
 129 00e4 FFF7FEFF 		bl	HAL_GetTick
 130 00e8 801B     		subs	r0, r0, r6
 131 00ea 41F28833 		movw	r3, #5000
 132 00ee 9842     		cmp	r0, r3
 133 00f0 F3D9     		bls	.L9
 134 00f2 0320     		movs	r0, #3
 135 00f4 05E0     		b	.L6
 136              	.L19:
 137 00f6 D369     		ldr	r3, [r2, #28]
 138 00f8 23F08053 		bic	r3, r3, #268435456
 139 00fc D361     		str	r3, [r2, #28]
 140 00fe BBE7     		b	.L2
 141              	.L15:
 142 0100 0020     		movs	r0, #0
 143              	.L6:
 144 0102 02B0     		add	sp, sp, #8
 145              		@ sp needed
 146 0104 70BD     		pop	{r4, r5, r6, pc}
 147              	.L21:
 148 0106 00BF     		.align	2
 149              	.L20:
 150 0108 00100240 		.word	1073876992
 151 010c 00700040 		.word	1073770496
 152 0110 40044242 		.word	1111622720
 154              		.section	.text.HAL_RCCEx_GetPeriphCLKConfig,"ax",%progbits
 155              		.align	1
 156              		.global	HAL_RCCEx_GetPeriphCLKConfig
 157              		.syntax unified
 158              		.thumb
 159              		.thumb_func
 160              		.fpu softvfp
 162              	HAL_RCCEx_GetPeriphCLKConfig:
 163              		@ args = 0, pretend = 0, frame = 0
 164              		@ frame_needed = 0, uses_anonymous_args = 0
 165              		@ link register save eliminated.
 166 0000 0123     		movs	r3, #1
 167 0002 0360     		str	r3, [r0]
 168 0004 084B     		ldr	r3, .L23
 169 0006 1A6A     		ldr	r2, [r3, #32]
 170 0008 02F44072 		and	r2, r2, #768
 171 000c 4260     		str	r2, [r0, #4]
 172 000e 0322     		movs	r2, #3
 173 0010 0260     		str	r2, [r0]
 174 0012 5A68     		ldr	r2, [r3, #4]
ARM GAS  /tmp/ccPo3q3S.s 			page 4


 175 0014 02F44042 		and	r2, r2, #49152
 176 0018 8260     		str	r2, [r0, #8]
 177 001a 1322     		movs	r2, #19
 178 001c 0260     		str	r2, [r0]
 179 001e 5B68     		ldr	r3, [r3, #4]
 180 0020 03F48003 		and	r3, r3, #4194304
 181 0024 C360     		str	r3, [r0, #12]
 182 0026 7047     		bx	lr
 183              	.L24:
 184              		.align	2
 185              	.L23:
 186 0028 00100240 		.word	1073876992
 188              		.section	.rodata.HAL_RCCEx_GetPeriphCLKFreq.str1.4,"aMS",%progbits,1
 189              		.align	2
 190              	.LC0:
 191 0000 02030405 		.ascii	"\002\003\004\005\006\007\010\011\012\013\014\015\016"
 191      06070809 
 191      0A0B0C0D 
 191      0E
 192 000d 0F101000 		.ascii	"\017\020\020\000"
 193              		.section	.text.HAL_RCCEx_GetPeriphCLKFreq,"ax",%progbits
 194              		.align	1
 195              		.global	HAL_RCCEx_GetPeriphCLKFreq
 196              		.syntax unified
 197              		.thumb
 198              		.thumb_func
 199              		.fpu softvfp
 201              	HAL_RCCEx_GetPeriphCLKFreq:
 202              		@ args = 0, pretend = 0, frame = 24
 203              		@ frame_needed = 0, uses_anonymous_args = 0
 204 0000 10B5     		push	{r4, lr}
 205 0002 86B0     		sub	sp, sp, #24
 206 0004 0446     		mov	r4, r0
 207 0006 364B     		ldr	r3, .L40
 208 0008 0FCB     		ldm	r3, {r0, r1, r2, r3}
 209 000a 0DF1180C 		add	ip, sp, #24
 210 000e 0CE90F00 		stmdb	ip, {r0, r1, r2, r3}
 211 0012 40F20123 		movw	r3, #513
 212 0016 ADF80430 		strh	r3, [sp, #4]	@ movhi
 213 001a 022C     		cmp	r4, #2
 214 001c 52D0     		beq	.L26
 215 001e 102C     		cmp	r4, #16
 216 0020 04D0     		beq	.L27
 217 0022 012C     		cmp	r4, #1
 218 0024 2CD0     		beq	.L28
 219 0026 0020     		movs	r0, #0
 220              	.L25:
 221 0028 06B0     		add	sp, sp, #24
 222              		@ sp needed
 223 002a 10BD     		pop	{r4, pc}
 224              	.L27:
 225 002c 2D4B     		ldr	r3, .L40+4
 226 002e 5A68     		ldr	r2, [r3, #4]
 227 0030 1868     		ldr	r0, [r3]
 228 0032 10F08070 		ands	r0, r0, #16777216
 229 0036 F7D0     		beq	.L25
 230 0038 C2F38343 		ubfx	r3, r2, #18, #4
ARM GAS  /tmp/ccPo3q3S.s 			page 5


 231 003c 06A9     		add	r1, sp, #24
 232 003e 0B44     		add	r3, r3, r1
 233 0040 13F8100C 		ldrb	r0, [r3, #-16]	@ zero_extendqisi2
 234 0044 12F4803F 		tst	r2, #65536
 235 0048 16D0     		beq	.L30
 236 004a 264B     		ldr	r3, .L40+4
 237 004c 5B68     		ldr	r3, [r3, #4]
 238 004e C3F34043 		ubfx	r3, r3, #17, #1
 239 0052 0B44     		add	r3, r3, r1
 240 0054 13F8142C 		ldrb	r2, [r3, #-20]	@ zero_extendqisi2
 241 0058 234B     		ldr	r3, .L40+8
 242 005a B3FBF2F3 		udiv	r3, r3, r2
 243 005e 00FB03F0 		mul	r0, r0, r3
 244              	.L31:
 245 0062 204B     		ldr	r3, .L40+4
 246 0064 5B68     		ldr	r3, [r3, #4]
 247 0066 13F4800F 		tst	r3, #4194304
 248 006a DDD1     		bne	.L25
 249 006c 4000     		lsls	r0, r0, #1
 250 006e 1F4B     		ldr	r3, .L40+12
 251 0070 A3FB0030 		umull	r3, r0, r3, r0
 252 0074 4008     		lsrs	r0, r0, #1
 253 0076 D7E7     		b	.L25
 254              	.L30:
 255 0078 1D4B     		ldr	r3, .L40+16
 256 007a 03FB00F0 		mul	r0, r3, r0
 257 007e F0E7     		b	.L31
 258              	.L28:
 259 0080 184B     		ldr	r3, .L40+4
 260 0082 1B6A     		ldr	r3, [r3, #32]
 261 0084 40F20232 		movw	r2, #770
 262 0088 1A40     		ands	r2, r2, r3
 263 008a B2F5817F 		cmp	r2, #258
 264 008e 24D0     		beq	.L33
 265 0090 03F44073 		and	r3, r3, #768
 266 0094 B3F5007F 		cmp	r3, #512
 267 0098 04D0     		beq	.L38
 268              	.L32:
 269 009a B3F5407F 		cmp	r3, #768
 270 009e 09D0     		beq	.L39
 271 00a0 0020     		movs	r0, #0
 272 00a2 C1E7     		b	.L25
 273              	.L38:
 274 00a4 0F4A     		ldr	r2, .L40+4
 275 00a6 526A     		ldr	r2, [r2, #36]
 276 00a8 12F0020F 		tst	r2, #2
 277 00ac F5D0     		beq	.L32
 278 00ae 49F64040 		movw	r0, #40000
 279 00b2 B9E7     		b	.L25
 280              	.L39:
 281 00b4 0B4B     		ldr	r3, .L40+4
 282 00b6 1868     		ldr	r0, [r3]
 283 00b8 10F40030 		ands	r0, r0, #131072
 284 00bc B4D0     		beq	.L25
 285 00be 4FF22440 		movw	r0, #62500
 286 00c2 B1E7     		b	.L25
 287              	.L26:
ARM GAS  /tmp/ccPo3q3S.s 			page 6


 288 00c4 FFF7FEFF 		bl	HAL_RCC_GetPCLK2Freq
 289 00c8 064B     		ldr	r3, .L40+4
 290 00ca 5B68     		ldr	r3, [r3, #4]
 291 00cc C3F38133 		ubfx	r3, r3, #14, #2
 292 00d0 0133     		adds	r3, r3, #1
 293 00d2 5B00     		lsls	r3, r3, #1
 294 00d4 B0FBF3F0 		udiv	r0, r0, r3
 295 00d8 A6E7     		b	.L25
 296              	.L33:
 297 00da 4FF40040 		mov	r0, #32768
 298 00de A3E7     		b	.L25
 299              	.L41:
 300              		.align	2
 301              	.L40:
 302 00e0 00000000 		.word	.LC0
 303 00e4 00100240 		.word	1073876992
 304 00e8 00127A00 		.word	8000000
 305 00ec ABAAAAAA 		.word	-1431655765
 306 00f0 00093D00 		.word	4000000
 308              		.ident	"GCC: (15:9-2019-q4-0ubuntu1) 9.2.1 20191025 (release) [ARM/arm-9-branch revision 277599]"
ARM GAS  /tmp/ccPo3q3S.s 			page 7

