ARM GAS  /tmp/ccmu29Tw.s 			page 1


   1              		.cpu cortex-m3
   2              		.eabi_attribute 20, 1
   3              		.eabi_attribute 21, 1
   4              		.eabi_attribute 23, 3
   5              		.eabi_attribute 24, 1
   6              		.eabi_attribute 25, 1
   7              		.eabi_attribute 26, 1
   8              		.eabi_attribute 30, 1
   9              		.eabi_attribute 34, 1
  10              		.eabi_attribute 18, 4
  11              		.file	"stm32f1xx_hal_rcc.c"
  12              		.text
  13              		.section	.text.RCC_Delay,"ax",%progbits
  14              		.align	1
  15              		.arch armv7-m
  16              		.syntax unified
  17              		.thumb
  18              		.thumb_func
  19              		.fpu softvfp
  21              	RCC_Delay:
  22              		@ args = 0, pretend = 0, frame = 8
  23              		@ frame_needed = 0, uses_anonymous_args = 0
  24              		@ link register save eliminated.
  25 0000 82B0     		sub	sp, sp, #8
  26 0002 084B     		ldr	r3, .L4
  27 0004 1B68     		ldr	r3, [r3]
  28 0006 084A     		ldr	r2, .L4+4
  29 0008 A2FB0323 		umull	r2, r3, r2, r3
  30 000c 5B0A     		lsrs	r3, r3, #9
  31 000e 00FB03F3 		mul	r3, r0, r3
  32 0012 0193     		str	r3, [sp, #4]
  33              	.L2:
  34              		.syntax unified
  35              	@ 1370 "Drivers/STM32F1xx_HAL_Driver/Src/stm32f1xx_hal_rcc.c" 1
  36 0014 00BF     		nop
  37              	@ 0 "" 2
  38              		.thumb
  39              		.syntax unified
  40 0016 019B     		ldr	r3, [sp, #4]
  41 0018 5A1E     		subs	r2, r3, #1
  42 001a 0192     		str	r2, [sp, #4]
  43 001c 002B     		cmp	r3, #0
  44 001e F9D1     		bne	.L2
  45 0020 02B0     		add	sp, sp, #8
  46              		@ sp needed
  47 0022 7047     		bx	lr
  48              	.L5:
  49              		.align	2
  50              	.L4:
  51 0024 00000000 		.word	SystemCoreClock
  52 0028 D34D6210 		.word	274877907
  54              		.section	.text.HAL_RCC_DeInit,"ax",%progbits
  55              		.align	1
  56              		.global	HAL_RCC_DeInit
  57              		.syntax unified
  58              		.thumb
  59              		.thumb_func
ARM GAS  /tmp/ccmu29Tw.s 			page 2


  60              		.fpu softvfp
  62              	HAL_RCC_DeInit:
  63              		@ args = 0, pretend = 0, frame = 0
  64              		@ frame_needed = 0, uses_anonymous_args = 0
  65 0000 70B5     		push	{r4, r5, r6, lr}
  66 0002 FFF7FEFF 		bl	HAL_GetTick
  67 0006 0446     		mov	r4, r0
  68 0008 364A     		ldr	r2, .L27
  69 000a 1368     		ldr	r3, [r2]
  70 000c 43F00103 		orr	r3, r3, #1
  71 0010 1360     		str	r3, [r2]
  72              	.L7:
  73 0012 344B     		ldr	r3, .L27
  74 0014 1B68     		ldr	r3, [r3]
  75 0016 13F0020F 		tst	r3, #2
  76 001a 07D1     		bne	.L22
  77 001c FFF7FEFF 		bl	HAL_GetTick
  78 0020 001B     		subs	r0, r0, r4
  79 0022 0228     		cmp	r0, #2
  80 0024 F5D9     		bls	.L7
  81 0026 0324     		movs	r4, #3
  82              	.L8:
  83 0028 2046     		mov	r0, r4
  84 002a 70BD     		pop	{r4, r5, r6, pc}
  85              	.L22:
  86 002c 2D4D     		ldr	r5, .L27
  87 002e 2B68     		ldr	r3, [r5]
  88 0030 23F0F803 		bic	r3, r3, #248
  89 0034 43F08003 		orr	r3, r3, #128
  90 0038 2B60     		str	r3, [r5]
  91 003a FFF7FEFF 		bl	HAL_GetTick
  92 003e 0446     		mov	r4, r0
  93 0040 0023     		movs	r3, #0
  94 0042 6B60     		str	r3, [r5, #4]
  95              	.L10:
  96 0044 274B     		ldr	r3, .L27
  97 0046 5B68     		ldr	r3, [r3, #4]
  98 0048 13F00C0F 		tst	r3, #12
  99 004c 08D0     		beq	.L23
 100 004e FFF7FEFF 		bl	HAL_GetTick
 101 0052 001B     		subs	r0, r0, r4
 102 0054 41F28833 		movw	r3, #5000
 103 0058 9842     		cmp	r0, r3
 104 005a F3D9     		bls	.L10
 105 005c 0324     		movs	r4, #3
 106 005e E3E7     		b	.L8
 107              	.L23:
 108 0060 214B     		ldr	r3, .L27+4
 109 0062 224A     		ldr	r2, .L27+8
 110 0064 1A60     		str	r2, [r3]
 111 0066 224B     		ldr	r3, .L27+12
 112 0068 1868     		ldr	r0, [r3]
 113 006a FFF7FEFF 		bl	HAL_InitTick
 114 006e 0446     		mov	r4, r0
 115 0070 08B1     		cbz	r0, .L24
 116 0072 0124     		movs	r4, #1
 117 0074 D8E7     		b	.L8
ARM GAS  /tmp/ccmu29Tw.s 			page 3


 118              	.L24:
 119 0076 FFF7FEFF 		bl	HAL_GetTick
 120 007a 0546     		mov	r5, r0
 121 007c 194A     		ldr	r2, .L27
 122 007e 1368     		ldr	r3, [r2]
 123 0080 23F08073 		bic	r3, r3, #16777216
 124 0084 1360     		str	r3, [r2]
 125              	.L12:
 126 0086 174B     		ldr	r3, .L27
 127 0088 1B68     		ldr	r3, [r3]
 128 008a 13F0007F 		tst	r3, #33554432
 129 008e 06D0     		beq	.L25
 130 0090 FFF7FEFF 		bl	HAL_GetTick
 131 0094 401B     		subs	r0, r0, r5
 132 0096 0228     		cmp	r0, #2
 133 0098 F5D9     		bls	.L12
 134 009a 0324     		movs	r4, #3
 135 009c C4E7     		b	.L8
 136              	.L25:
 137 009e 114E     		ldr	r6, .L27
 138 00a0 0023     		movs	r3, #0
 139 00a2 7360     		str	r3, [r6, #4]
 140 00a4 FFF7FEFF 		bl	HAL_GetTick
 141 00a8 0546     		mov	r5, r0
 142 00aa 3368     		ldr	r3, [r6]
 143 00ac 23F41023 		bic	r3, r3, #589824
 144 00b0 3360     		str	r3, [r6]
 145              	.L14:
 146 00b2 0C4B     		ldr	r3, .L27
 147 00b4 1B68     		ldr	r3, [r3]
 148 00b6 13F4003F 		tst	r3, #131072
 149 00ba 06D0     		beq	.L26
 150 00bc FFF7FEFF 		bl	HAL_GetTick
 151 00c0 401B     		subs	r0, r0, r5
 152 00c2 6428     		cmp	r0, #100
 153 00c4 F5D9     		bls	.L14
 154 00c6 0324     		movs	r4, #3
 155 00c8 AEE7     		b	.L8
 156              	.L26:
 157 00ca 064B     		ldr	r3, .L27
 158 00cc 1A68     		ldr	r2, [r3]
 159 00ce 22F48022 		bic	r2, r2, #262144
 160 00d2 1A60     		str	r2, [r3]
 161 00d4 5A6A     		ldr	r2, [r3, #36]
 162 00d6 42F08072 		orr	r2, r2, #16777216
 163 00da 5A62     		str	r2, [r3, #36]
 164 00dc 0022     		movs	r2, #0
 165 00de 9A60     		str	r2, [r3, #8]
 166 00e0 A2E7     		b	.L8
 167              	.L28:
 168 00e2 00BF     		.align	2
 169              	.L27:
 170 00e4 00100240 		.word	1073876992
 171 00e8 00000000 		.word	SystemCoreClock
 172 00ec 00127A00 		.word	8000000
 173 00f0 00000000 		.word	uwTickPrio
 175              		.section	.text.HAL_RCC_OscConfig,"ax",%progbits
ARM GAS  /tmp/ccmu29Tw.s 			page 4


 176              		.align	1
 177              		.global	HAL_RCC_OscConfig
 178              		.syntax unified
 179              		.thumb
 180              		.thumb_func
 181              		.fpu softvfp
 183              	HAL_RCC_OscConfig:
 184              		@ args = 0, pretend = 0, frame = 8
 185              		@ frame_needed = 0, uses_anonymous_args = 0
 186 0000 0028     		cmp	r0, #0
 187 0002 00F0F181 		beq	.L82
 188 0006 70B5     		push	{r4, r5, r6, lr}
 189 0008 82B0     		sub	sp, sp, #8
 190 000a 0446     		mov	r4, r0
 191 000c 0368     		ldr	r3, [r0]
 192 000e 13F0010F 		tst	r3, #1
 193 0012 2CD0     		beq	.L31
 194 0014 AA4B     		ldr	r3, .L122
 195 0016 5B68     		ldr	r3, [r3, #4]
 196 0018 03F00C03 		and	r3, r3, #12
 197 001c 042B     		cmp	r3, #4
 198 001e 1DD0     		beq	.L32
 199 0020 A74B     		ldr	r3, .L122
 200 0022 5B68     		ldr	r3, [r3, #4]
 201 0024 03F00C03 		and	r3, r3, #12
 202 0028 082B     		cmp	r3, #8
 203 002a 12D0     		beq	.L106
 204              	.L33:
 205 002c 6368     		ldr	r3, [r4, #4]
 206 002e B3F5803F 		cmp	r3, #65536
 207 0032 41D0     		beq	.L107
 208 0034 002B     		cmp	r3, #0
 209 0036 55D1     		bne	.L36
 210 0038 03F18043 		add	r3, r3, #1073741824
 211 003c 03F50433 		add	r3, r3, #135168
 212 0040 1A68     		ldr	r2, [r3]
 213 0042 22F48032 		bic	r2, r2, #65536
 214 0046 1A60     		str	r2, [r3]
 215 0048 1A68     		ldr	r2, [r3]
 216 004a 22F48022 		bic	r2, r2, #262144
 217 004e 1A60     		str	r2, [r3]
 218 0050 37E0     		b	.L35
 219              	.L106:
 220 0052 9B4B     		ldr	r3, .L122
 221 0054 5B68     		ldr	r3, [r3, #4]
 222 0056 13F4803F 		tst	r3, #65536
 223 005a E7D0     		beq	.L33
 224              	.L32:
 225 005c 984B     		ldr	r3, .L122
 226 005e 1B68     		ldr	r3, [r3]
 227 0060 13F4003F 		tst	r3, #131072
 228 0064 03D0     		beq	.L31
 229 0066 6368     		ldr	r3, [r4, #4]
 230 0068 002B     		cmp	r3, #0
 231 006a 00F0BF81 		beq	.L108
 232              	.L31:
 233 006e 2368     		ldr	r3, [r4]
ARM GAS  /tmp/ccmu29Tw.s 			page 5


 234 0070 13F0020F 		tst	r3, #2
 235 0074 75D0     		beq	.L43
 236 0076 924B     		ldr	r3, .L122
 237 0078 5B68     		ldr	r3, [r3, #4]
 238 007a 13F00C0F 		tst	r3, #12
 239 007e 5FD0     		beq	.L44
 240 0080 8F4B     		ldr	r3, .L122
 241 0082 5B68     		ldr	r3, [r3, #4]
 242 0084 03F00C03 		and	r3, r3, #12
 243 0088 082B     		cmp	r3, #8
 244 008a 54D0     		beq	.L109
 245              	.L45:
 246 008c 2369     		ldr	r3, [r4, #16]
 247 008e 002B     		cmp	r3, #0
 248 0090 00F08980 		beq	.L47
 249 0094 8B4B     		ldr	r3, .L122+4
 250 0096 0122     		movs	r2, #1
 251 0098 1A60     		str	r2, [r3]
 252 009a FFF7FEFF 		bl	HAL_GetTick
 253 009e 0546     		mov	r5, r0
 254              	.L48:
 255 00a0 874B     		ldr	r3, .L122
 256 00a2 1B68     		ldr	r3, [r3]
 257 00a4 13F0020F 		tst	r3, #2
 258 00a8 74D1     		bne	.L110
 259 00aa FFF7FEFF 		bl	HAL_GetTick
 260 00ae 401B     		subs	r0, r0, r5
 261 00b0 0228     		cmp	r0, #2
 262 00b2 F5D9     		bls	.L48
 263 00b4 0320     		movs	r0, #3
 264 00b6 9EE1     		b	.L30
 265              	.L107:
 266 00b8 814A     		ldr	r2, .L122
 267 00ba 1368     		ldr	r3, [r2]
 268 00bc 43F48033 		orr	r3, r3, #65536
 269 00c0 1360     		str	r3, [r2]
 270              	.L35:
 271 00c2 6368     		ldr	r3, [r4, #4]
 272 00c4 43B3     		cbz	r3, .L38
 273 00c6 FFF7FEFF 		bl	HAL_GetTick
 274 00ca 0546     		mov	r5, r0
 275              	.L39:
 276 00cc 7C4B     		ldr	r3, .L122
 277 00ce 1B68     		ldr	r3, [r3]
 278 00d0 13F4003F 		tst	r3, #131072
 279 00d4 CBD1     		bne	.L31
 280 00d6 FFF7FEFF 		bl	HAL_GetTick
 281 00da 401B     		subs	r0, r0, r5
 282 00dc 6428     		cmp	r0, #100
 283 00de F5D9     		bls	.L39
 284 00e0 0320     		movs	r0, #3
 285 00e2 88E1     		b	.L30
 286              	.L36:
 287 00e4 B3F5A02F 		cmp	r3, #327680
 288 00e8 09D0     		beq	.L111
 289 00ea 754B     		ldr	r3, .L122
 290 00ec 1A68     		ldr	r2, [r3]
ARM GAS  /tmp/ccmu29Tw.s 			page 6


 291 00ee 22F48032 		bic	r2, r2, #65536
 292 00f2 1A60     		str	r2, [r3]
 293 00f4 1A68     		ldr	r2, [r3]
 294 00f6 22F48022 		bic	r2, r2, #262144
 295 00fa 1A60     		str	r2, [r3]
 296 00fc E1E7     		b	.L35
 297              	.L111:
 298 00fe 03F18043 		add	r3, r3, #1073741824
 299 0102 A3F53C33 		sub	r3, r3, #192512
 300 0106 1A68     		ldr	r2, [r3]
 301 0108 42F48022 		orr	r2, r2, #262144
 302 010c 1A60     		str	r2, [r3]
 303 010e 1A68     		ldr	r2, [r3]
 304 0110 42F48032 		orr	r2, r2, #65536
 305 0114 1A60     		str	r2, [r3]
 306 0116 D4E7     		b	.L35
 307              	.L38:
 308 0118 FFF7FEFF 		bl	HAL_GetTick
 309 011c 0546     		mov	r5, r0
 310              	.L41:
 311 011e 684B     		ldr	r3, .L122
 312 0120 1B68     		ldr	r3, [r3]
 313 0122 13F4003F 		tst	r3, #131072
 314 0126 A2D0     		beq	.L31
 315 0128 FFF7FEFF 		bl	HAL_GetTick
 316 012c 401B     		subs	r0, r0, r5
 317 012e 6428     		cmp	r0, #100
 318 0130 F5D9     		bls	.L41
 319 0132 0320     		movs	r0, #3
 320 0134 5FE1     		b	.L30
 321              	.L109:
 322 0136 624B     		ldr	r3, .L122
 323 0138 5B68     		ldr	r3, [r3, #4]
 324 013a 13F4803F 		tst	r3, #65536
 325 013e A5D1     		bne	.L45
 326              	.L44:
 327 0140 5F4B     		ldr	r3, .L122
 328 0142 1B68     		ldr	r3, [r3]
 329 0144 13F0020F 		tst	r3, #2
 330 0148 03D0     		beq	.L46
 331 014a 2369     		ldr	r3, [r4, #16]
 332 014c 012B     		cmp	r3, #1
 333 014e 40F04F81 		bne	.L86
 334              	.L46:
 335 0152 5B4A     		ldr	r2, .L122
 336 0154 1368     		ldr	r3, [r2]
 337 0156 23F0F803 		bic	r3, r3, #248
 338 015a 6169     		ldr	r1, [r4, #20]
 339 015c 43EAC103 		orr	r3, r3, r1, lsl #3
 340 0160 1360     		str	r3, [r2]
 341              	.L43:
 342 0162 2368     		ldr	r3, [r4]
 343 0164 13F0080F 		tst	r3, #8
 344 0168 32D0     		beq	.L52
 345 016a A369     		ldr	r3, [r4, #24]
 346 016c 002B     		cmp	r3, #0
 347 016e 45D0     		beq	.L53
ARM GAS  /tmp/ccmu29Tw.s 			page 7


 348 0170 554B     		ldr	r3, .L122+8
 349 0172 0122     		movs	r2, #1
 350 0174 1A60     		str	r2, [r3]
 351 0176 FFF7FEFF 		bl	HAL_GetTick
 352 017a 0546     		mov	r5, r0
 353              	.L54:
 354 017c 504B     		ldr	r3, .L122
 355 017e 5B6A     		ldr	r3, [r3, #36]
 356 0180 13F0020F 		tst	r3, #2
 357 0184 21D1     		bne	.L112
 358 0186 FFF7FEFF 		bl	HAL_GetTick
 359 018a 401B     		subs	r0, r0, r5
 360 018c 0228     		cmp	r0, #2
 361 018e F5D9     		bls	.L54
 362 0190 0320     		movs	r0, #3
 363 0192 30E1     		b	.L30
 364              	.L110:
 365 0194 4A4A     		ldr	r2, .L122
 366 0196 1368     		ldr	r3, [r2]
 367 0198 23F0F803 		bic	r3, r3, #248
 368 019c 6169     		ldr	r1, [r4, #20]
 369 019e 43EAC103 		orr	r3, r3, r1, lsl #3
 370 01a2 1360     		str	r3, [r2]
 371 01a4 DDE7     		b	.L43
 372              	.L47:
 373 01a6 474B     		ldr	r3, .L122+4
 374 01a8 0022     		movs	r2, #0
 375 01aa 1A60     		str	r2, [r3]
 376 01ac FFF7FEFF 		bl	HAL_GetTick
 377 01b0 0546     		mov	r5, r0
 378              	.L50:
 379 01b2 434B     		ldr	r3, .L122
 380 01b4 1B68     		ldr	r3, [r3]
 381 01b6 13F0020F 		tst	r3, #2
 382 01ba D2D0     		beq	.L43
 383 01bc FFF7FEFF 		bl	HAL_GetTick
 384 01c0 401B     		subs	r0, r0, r5
 385 01c2 0228     		cmp	r0, #2
 386 01c4 F5D9     		bls	.L50
 387 01c6 0320     		movs	r0, #3
 388 01c8 15E1     		b	.L30
 389              	.L112:
 390 01ca 0120     		movs	r0, #1
 391 01cc FFF7FEFF 		bl	RCC_Delay
 392              	.L52:
 393 01d0 2368     		ldr	r3, [r4]
 394 01d2 13F0040F 		tst	r3, #4
 395 01d6 00F09780 		beq	.L58
 396 01da 394B     		ldr	r3, .L122
 397 01dc DB69     		ldr	r3, [r3, #28]
 398 01de 13F0805F 		tst	r3, #268435456
 399 01e2 1DD1     		bne	.L91
 400 01e4 364B     		ldr	r3, .L122
 401 01e6 DA69     		ldr	r2, [r3, #28]
 402 01e8 42F08052 		orr	r2, r2, #268435456
 403 01ec DA61     		str	r2, [r3, #28]
 404 01ee DB69     		ldr	r3, [r3, #28]
ARM GAS  /tmp/ccmu29Tw.s 			page 8


 405 01f0 03F08053 		and	r3, r3, #268435456
 406 01f4 0193     		str	r3, [sp, #4]
 407 01f6 019B     		ldr	r3, [sp, #4]
 408 01f8 0125     		movs	r5, #1
 409 01fa 12E0     		b	.L59
 410              	.L53:
 411 01fc 324B     		ldr	r3, .L122+8
 412 01fe 0022     		movs	r2, #0
 413 0200 1A60     		str	r2, [r3]
 414 0202 FFF7FEFF 		bl	HAL_GetTick
 415 0206 0546     		mov	r5, r0
 416              	.L56:
 417 0208 2D4B     		ldr	r3, .L122
 418 020a 5B6A     		ldr	r3, [r3, #36]
 419 020c 13F0020F 		tst	r3, #2
 420 0210 DED0     		beq	.L52
 421 0212 FFF7FEFF 		bl	HAL_GetTick
 422 0216 401B     		subs	r0, r0, r5
 423 0218 0228     		cmp	r0, #2
 424 021a F5D9     		bls	.L56
 425 021c 0320     		movs	r0, #3
 426 021e EAE0     		b	.L30
 427              	.L91:
 428 0220 0025     		movs	r5, #0
 429              	.L59:
 430 0222 2A4B     		ldr	r3, .L122+12
 431 0224 1B68     		ldr	r3, [r3]
 432 0226 13F4807F 		tst	r3, #256
 433 022a 11D0     		beq	.L113
 434              	.L60:
 435 022c E368     		ldr	r3, [r4, #12]
 436 022e 012B     		cmp	r3, #1
 437 0230 22D0     		beq	.L114
 438 0232 002B     		cmp	r3, #0
 439 0234 38D1     		bne	.L65
 440 0236 03F18043 		add	r3, r3, #1073741824
 441 023a 03F50433 		add	r3, r3, #135168
 442 023e 1A6A     		ldr	r2, [r3, #32]
 443 0240 22F00102 		bic	r2, r2, #1
 444 0244 1A62     		str	r2, [r3, #32]
 445 0246 1A6A     		ldr	r2, [r3, #32]
 446 0248 22F00402 		bic	r2, r2, #4
 447 024c 1A62     		str	r2, [r3, #32]
 448 024e 18E0     		b	.L64
 449              	.L113:
 450 0250 1E4A     		ldr	r2, .L122+12
 451 0252 1368     		ldr	r3, [r2]
 452 0254 43F48073 		orr	r3, r3, #256
 453 0258 1360     		str	r3, [r2]
 454 025a FFF7FEFF 		bl	HAL_GetTick
 455 025e 0646     		mov	r6, r0
 456              	.L61:
 457 0260 1A4B     		ldr	r3, .L122+12
 458 0262 1B68     		ldr	r3, [r3]
 459 0264 13F4807F 		tst	r3, #256
 460 0268 E0D1     		bne	.L60
 461 026a FFF7FEFF 		bl	HAL_GetTick
ARM GAS  /tmp/ccmu29Tw.s 			page 9


 462 026e 801B     		subs	r0, r0, r6
 463 0270 6428     		cmp	r0, #100
 464 0272 F5D9     		bls	.L61
 465 0274 0320     		movs	r0, #3
 466 0276 BEE0     		b	.L30
 467              	.L114:
 468 0278 114A     		ldr	r2, .L122
 469 027a 136A     		ldr	r3, [r2, #32]
 470 027c 43F00103 		orr	r3, r3, #1
 471 0280 1362     		str	r3, [r2, #32]
 472              	.L64:
 473 0282 E368     		ldr	r3, [r4, #12]
 474 0284 73B3     		cbz	r3, .L67
 475 0286 FFF7FEFF 		bl	HAL_GetTick
 476 028a 0646     		mov	r6, r0
 477              	.L68:
 478 028c 0C4B     		ldr	r3, .L122
 479 028e 1B6A     		ldr	r3, [r3, #32]
 480 0290 13F0020F 		tst	r3, #2
 481 0294 37D1     		bne	.L70
 482 0296 FFF7FEFF 		bl	HAL_GetTick
 483 029a 801B     		subs	r0, r0, r6
 484 029c 41F28833 		movw	r3, #5000
 485 02a0 9842     		cmp	r0, r3
 486 02a2 F3D9     		bls	.L68
 487 02a4 0320     		movs	r0, #3
 488 02a6 A6E0     		b	.L30
 489              	.L65:
 490 02a8 052B     		cmp	r3, #5
 491 02aa 11D0     		beq	.L115
 492 02ac 044B     		ldr	r3, .L122
 493 02ae 1A6A     		ldr	r2, [r3, #32]
 494 02b0 22F00102 		bic	r2, r2, #1
 495 02b4 1A62     		str	r2, [r3, #32]
 496 02b6 1A6A     		ldr	r2, [r3, #32]
 497 02b8 22F00402 		bic	r2, r2, #4
 498 02bc 1A62     		str	r2, [r3, #32]
 499 02be E0E7     		b	.L64
 500              	.L123:
 501              		.align	2
 502              	.L122:
 503 02c0 00100240 		.word	1073876992
 504 02c4 00004242 		.word	1111621632
 505 02c8 80044242 		.word	1111622784
 506 02cc 00700040 		.word	1073770496
 507              	.L115:
 508 02d0 4D4B     		ldr	r3, .L124
 509 02d2 1A6A     		ldr	r2, [r3, #32]
 510 02d4 42F00402 		orr	r2, r2, #4
 511 02d8 1A62     		str	r2, [r3, #32]
 512 02da 1A6A     		ldr	r2, [r3, #32]
 513 02dc 42F00102 		orr	r2, r2, #1
 514 02e0 1A62     		str	r2, [r3, #32]
 515 02e2 CEE7     		b	.L64
 516              	.L67:
 517 02e4 FFF7FEFF 		bl	HAL_GetTick
 518 02e8 0646     		mov	r6, r0
ARM GAS  /tmp/ccmu29Tw.s 			page 10


 519              	.L71:
 520 02ea 474B     		ldr	r3, .L124
 521 02ec 1B6A     		ldr	r3, [r3, #32]
 522 02ee 13F0020F 		tst	r3, #2
 523 02f2 08D0     		beq	.L70
 524 02f4 FFF7FEFF 		bl	HAL_GetTick
 525 02f8 801B     		subs	r0, r0, r6
 526 02fa 41F28833 		movw	r3, #5000
 527 02fe 9842     		cmp	r0, r3
 528 0300 F3D9     		bls	.L71
 529 0302 0320     		movs	r0, #3
 530 0304 77E0     		b	.L30
 531              	.L70:
 532 0306 E5B9     		cbnz	r5, .L116
 533              	.L58:
 534 0308 E369     		ldr	r3, [r4, #28]
 535 030a 002B     		cmp	r3, #0
 536 030c 72D0     		beq	.L95
 537 030e 3E4A     		ldr	r2, .L124
 538 0310 5268     		ldr	r2, [r2, #4]
 539 0312 02F00C02 		and	r2, r2, #12
 540 0316 082A     		cmp	r2, #8
 541 0318 56D0     		beq	.L73
 542 031a 022B     		cmp	r3, #2
 543 031c 17D0     		beq	.L117
 544 031e 3B4B     		ldr	r3, .L124+4
 545 0320 0022     		movs	r2, #0
 546 0322 1A60     		str	r2, [r3]
 547 0324 FFF7FEFF 		bl	HAL_GetTick
 548 0328 0446     		mov	r4, r0
 549              	.L80:
 550 032a 374B     		ldr	r3, .L124
 551 032c 1B68     		ldr	r3, [r3]
 552 032e 13F0007F 		tst	r3, #33554432
 553 0332 47D0     		beq	.L118
 554 0334 FFF7FEFF 		bl	HAL_GetTick
 555 0338 001B     		subs	r0, r0, r4
 556 033a 0228     		cmp	r0, #2
 557 033c F5D9     		bls	.L80
 558 033e 0320     		movs	r0, #3
 559 0340 59E0     		b	.L30
 560              	.L116:
 561 0342 314A     		ldr	r2, .L124
 562 0344 D369     		ldr	r3, [r2, #28]
 563 0346 23F08053 		bic	r3, r3, #268435456
 564 034a D361     		str	r3, [r2, #28]
 565 034c DCE7     		b	.L58
 566              	.L117:
 567 034e 2F4B     		ldr	r3, .L124+4
 568 0350 0022     		movs	r2, #0
 569 0352 1A60     		str	r2, [r3]
 570 0354 FFF7FEFF 		bl	HAL_GetTick
 571 0358 0546     		mov	r5, r0
 572              	.L75:
 573 035a 2B4B     		ldr	r3, .L124
 574 035c 1B68     		ldr	r3, [r3]
 575 035e 13F0007F 		tst	r3, #33554432
ARM GAS  /tmp/ccmu29Tw.s 			page 11


 576 0362 06D0     		beq	.L119
 577 0364 FFF7FEFF 		bl	HAL_GetTick
 578 0368 401B     		subs	r0, r0, r5
 579 036a 0228     		cmp	r0, #2
 580 036c F5D9     		bls	.L75
 581 036e 0320     		movs	r0, #3
 582 0370 41E0     		b	.L30
 583              	.L119:
 584 0372 236A     		ldr	r3, [r4, #32]
 585 0374 B3F5803F 		cmp	r3, #65536
 586 0378 1AD0     		beq	.L120
 587              	.L77:
 588 037a 2349     		ldr	r1, .L124
 589 037c 4B68     		ldr	r3, [r1, #4]
 590 037e 23F47413 		bic	r3, r3, #3997696
 591 0382 226A     		ldr	r2, [r4, #32]
 592 0384 606A     		ldr	r0, [r4, #36]
 593 0386 0243     		orrs	r2, r2, r0
 594 0388 1343     		orrs	r3, r3, r2
 595 038a 4B60     		str	r3, [r1, #4]
 596 038c 1F4B     		ldr	r3, .L124+4
 597 038e 0122     		movs	r2, #1
 598 0390 1A60     		str	r2, [r3]
 599 0392 FFF7FEFF 		bl	HAL_GetTick
 600 0396 0446     		mov	r4, r0
 601              	.L78:
 602 0398 1B4B     		ldr	r3, .L124
 603 039a 1B68     		ldr	r3, [r3]
 604 039c 13F0007F 		tst	r3, #33554432
 605 03a0 0ED1     		bne	.L121
 606 03a2 FFF7FEFF 		bl	HAL_GetTick
 607 03a6 001B     		subs	r0, r0, r4
 608 03a8 0228     		cmp	r0, #2
 609 03aa F5D9     		bls	.L78
 610 03ac 0320     		movs	r0, #3
 611 03ae 22E0     		b	.L30
 612              	.L120:
 613 03b0 154A     		ldr	r2, .L124
 614 03b2 5368     		ldr	r3, [r2, #4]
 615 03b4 23F40033 		bic	r3, r3, #131072
 616 03b8 A168     		ldr	r1, [r4, #8]
 617 03ba 0B43     		orrs	r3, r3, r1
 618 03bc 5360     		str	r3, [r2, #4]
 619 03be DCE7     		b	.L77
 620              	.L121:
 621 03c0 0020     		movs	r0, #0
 622 03c2 18E0     		b	.L30
 623              	.L118:
 624 03c4 0020     		movs	r0, #0
 625 03c6 16E0     		b	.L30
 626              	.L73:
 627 03c8 012B     		cmp	r3, #1
 628 03ca 16D0     		beq	.L99
 629 03cc 0E4B     		ldr	r3, .L124
 630 03ce 5B68     		ldr	r3, [r3, #4]
 631 03d0 03F48031 		and	r1, r3, #65536
 632 03d4 226A     		ldr	r2, [r4, #32]
ARM GAS  /tmp/ccmu29Tw.s 			page 12


 633 03d6 9142     		cmp	r1, r2
 634 03d8 11D1     		bne	.L100
 635 03da 03F47013 		and	r3, r3, #3932160
 636 03de 626A     		ldr	r2, [r4, #36]
 637 03e0 9342     		cmp	r3, r2
 638 03e2 0ED1     		bne	.L101
 639 03e4 0020     		movs	r0, #0
 640 03e6 06E0     		b	.L30
 641              	.L82:
 642 03e8 0120     		movs	r0, #1
 643 03ea 7047     		bx	lr
 644              	.L108:
 645 03ec 0120     		movs	r0, #1
 646 03ee 02E0     		b	.L30
 647              	.L86:
 648 03f0 0120     		movs	r0, #1
 649 03f2 00E0     		b	.L30
 650              	.L95:
 651 03f4 0020     		movs	r0, #0
 652              	.L30:
 653 03f6 02B0     		add	sp, sp, #8
 654              		@ sp needed
 655 03f8 70BD     		pop	{r4, r5, r6, pc}
 656              	.L99:
 657 03fa 0120     		movs	r0, #1
 658 03fc FBE7     		b	.L30
 659              	.L100:
 660 03fe 0120     		movs	r0, #1
 661 0400 F9E7     		b	.L30
 662              	.L101:
 663 0402 0120     		movs	r0, #1
 664 0404 F7E7     		b	.L30
 665              	.L125:
 666 0406 00BF     		.align	2
 667              	.L124:
 668 0408 00100240 		.word	1073876992
 669 040c 60004242 		.word	1111621728
 671              		.section	.text.HAL_RCC_MCOConfig,"ax",%progbits
 672              		.align	1
 673              		.global	HAL_RCC_MCOConfig
 674              		.syntax unified
 675              		.thumb
 676              		.thumb_func
 677              		.fpu softvfp
 679              	HAL_RCC_MCOConfig:
 680              		@ args = 0, pretend = 0, frame = 24
 681              		@ frame_needed = 0, uses_anonymous_args = 0
 682 0000 30B5     		push	{r4, r5, lr}
 683 0002 87B0     		sub	sp, sp, #28
 684 0004 0D46     		mov	r5, r1
 685 0006 0223     		movs	r3, #2
 686 0008 0393     		str	r3, [sp, #12]
 687 000a 0323     		movs	r3, #3
 688 000c 0593     		str	r3, [sp, #20]
 689 000e 0023     		movs	r3, #0
 690 0010 0493     		str	r3, [sp, #16]
 691 0012 4FF48073 		mov	r3, #256
ARM GAS  /tmp/ccmu29Tw.s 			page 13


 692 0016 0293     		str	r3, [sp, #8]
 693 0018 0A4C     		ldr	r4, .L128
 694 001a A369     		ldr	r3, [r4, #24]
 695 001c 43F00403 		orr	r3, r3, #4
 696 0020 A361     		str	r3, [r4, #24]
 697 0022 A369     		ldr	r3, [r4, #24]
 698 0024 03F00403 		and	r3, r3, #4
 699 0028 0193     		str	r3, [sp, #4]
 700 002a 019B     		ldr	r3, [sp, #4]
 701 002c 02A9     		add	r1, sp, #8
 702 002e 0648     		ldr	r0, .L128+4
 703 0030 FFF7FEFF 		bl	HAL_GPIO_Init
 704 0034 6368     		ldr	r3, [r4, #4]
 705 0036 23F0E063 		bic	r3, r3, #117440512
 706 003a 2B43     		orrs	r3, r3, r5
 707 003c 6360     		str	r3, [r4, #4]
 708 003e 07B0     		add	sp, sp, #28
 709              		@ sp needed
 710 0040 30BD     		pop	{r4, r5, pc}
 711              	.L129:
 712 0042 00BF     		.align	2
 713              	.L128:
 714 0044 00100240 		.word	1073876992
 715 0048 00080140 		.word	1073809408
 717              		.section	.text.HAL_RCC_EnableCSS,"ax",%progbits
 718              		.align	1
 719              		.global	HAL_RCC_EnableCSS
 720              		.syntax unified
 721              		.thumb
 722              		.thumb_func
 723              		.fpu softvfp
 725              	HAL_RCC_EnableCSS:
 726              		@ args = 0, pretend = 0, frame = 0
 727              		@ frame_needed = 0, uses_anonymous_args = 0
 728              		@ link register save eliminated.
 729 0000 014B     		ldr	r3, .L131
 730 0002 0122     		movs	r2, #1
 731 0004 1A60     		str	r2, [r3]
 732 0006 7047     		bx	lr
 733              	.L132:
 734              		.align	2
 735              	.L131:
 736 0008 4C004242 		.word	1111621708
 738              		.section	.text.HAL_RCC_DisableCSS,"ax",%progbits
 739              		.align	1
 740              		.global	HAL_RCC_DisableCSS
 741              		.syntax unified
 742              		.thumb
 743              		.thumb_func
 744              		.fpu softvfp
 746              	HAL_RCC_DisableCSS:
 747              		@ args = 0, pretend = 0, frame = 0
 748              		@ frame_needed = 0, uses_anonymous_args = 0
 749              		@ link register save eliminated.
 750 0000 014B     		ldr	r3, .L134
 751 0002 0022     		movs	r2, #0
 752 0004 1A60     		str	r2, [r3]
ARM GAS  /tmp/ccmu29Tw.s 			page 14


 753 0006 7047     		bx	lr
 754              	.L135:
 755              		.align	2
 756              	.L134:
 757 0008 4C004242 		.word	1111621708
 759              		.section	.rodata.HAL_RCC_GetSysClockFreq.str1.4,"aMS",%progbits,1
 760              		.align	2
 761              	.LC0:
 762 0000 02030405 		.ascii	"\002\003\004\005\006\007\010\011\012\013\014\015\016"
 762      06070809 
 762      0A0B0C0D 
 762      0E
 763 000d 0F101000 		.ascii	"\017\020\020\000"
 764              		.section	.text.HAL_RCC_GetSysClockFreq,"ax",%progbits
 765              		.align	1
 766              		.global	HAL_RCC_GetSysClockFreq
 767              		.syntax unified
 768              		.thumb
 769              		.thumb_func
 770              		.fpu softvfp
 772              	HAL_RCC_GetSysClockFreq:
 773              		@ args = 0, pretend = 0, frame = 24
 774              		@ frame_needed = 0, uses_anonymous_args = 0
 775              		@ link register save eliminated.
 776 0000 86B0     		sub	sp, sp, #24
 777 0002 164B     		ldr	r3, .L142
 778 0004 0FCB     		ldm	r3, {r0, r1, r2, r3}
 779 0006 0DF1180C 		add	ip, sp, #24
 780 000a 0CE90F00 		stmdb	ip, {r0, r1, r2, r3}
 781 000e 40F20123 		movw	r3, #513
 782 0012 ADF80430 		strh	r3, [sp, #4]	@ movhi
 783 0016 124B     		ldr	r3, .L142+4
 784 0018 5B68     		ldr	r3, [r3, #4]
 785 001a 03F00C02 		and	r2, r3, #12
 786 001e 082A     		cmp	r2, #8
 787 0020 02D0     		beq	.L141
 788 0022 1048     		ldr	r0, .L142+8
 789              	.L136:
 790 0024 06B0     		add	sp, sp, #24
 791              		@ sp needed
 792 0026 7047     		bx	lr
 793              	.L141:
 794 0028 C3F38342 		ubfx	r2, r3, #18, #4
 795 002c 6244     		add	r2, r2, ip
 796 002e 12F8102C 		ldrb	r2, [r2, #-16]	@ zero_extendqisi2
 797 0032 13F4803F 		tst	r3, #65536
 798 0036 0CD0     		beq	.L138
 799 0038 094B     		ldr	r3, .L142+4
 800 003a 5B68     		ldr	r3, [r3, #4]
 801 003c C3F34043 		ubfx	r3, r3, #17, #1
 802 0040 6344     		add	r3, r3, ip
 803 0042 13F8143C 		ldrb	r3, [r3, #-20]	@ zero_extendqisi2
 804 0046 0748     		ldr	r0, .L142+8
 805 0048 00FB02F0 		mul	r0, r0, r2
 806 004c B0FBF3F0 		udiv	r0, r0, r3
 807 0050 E8E7     		b	.L136
 808              	.L138:
ARM GAS  /tmp/ccmu29Tw.s 			page 15


 809 0052 0548     		ldr	r0, .L142+12
 810 0054 00FB02F0 		mul	r0, r0, r2
 811 0058 E4E7     		b	.L136
 812              	.L143:
 813 005a 00BF     		.align	2
 814              	.L142:
 815 005c 00000000 		.word	.LC0
 816 0060 00100240 		.word	1073876992
 817 0064 00127A00 		.word	8000000
 818 0068 00093D00 		.word	4000000
 820              		.section	.text.HAL_RCC_ClockConfig,"ax",%progbits
 821              		.align	1
 822              		.global	HAL_RCC_ClockConfig
 823              		.syntax unified
 824              		.thumb
 825              		.thumb_func
 826              		.fpu softvfp
 828              	HAL_RCC_ClockConfig:
 829              		@ args = 0, pretend = 0, frame = 0
 830              		@ frame_needed = 0, uses_anonymous_args = 0
 831 0000 0028     		cmp	r0, #0
 832 0002 00F0A080 		beq	.L159
 833 0006 70B5     		push	{r4, r5, r6, lr}
 834 0008 0D46     		mov	r5, r1
 835 000a 0446     		mov	r4, r0
 836 000c 524B     		ldr	r3, .L172
 837 000e 1B68     		ldr	r3, [r3]
 838 0010 03F00703 		and	r3, r3, #7
 839 0014 8B42     		cmp	r3, r1
 840 0016 0BD2     		bcs	.L146
 841 0018 4F4A     		ldr	r2, .L172
 842 001a 1368     		ldr	r3, [r2]
 843 001c 23F00703 		bic	r3, r3, #7
 844 0020 0B43     		orrs	r3, r3, r1
 845 0022 1360     		str	r3, [r2]
 846 0024 1368     		ldr	r3, [r2]
 847 0026 03F00703 		and	r3, r3, #7
 848 002a 8B42     		cmp	r3, r1
 849 002c 40F08D80 		bne	.L160
 850              	.L146:
 851 0030 2368     		ldr	r3, [r4]
 852 0032 13F0020F 		tst	r3, #2
 853 0036 17D0     		beq	.L147
 854 0038 13F0040F 		tst	r3, #4
 855 003c 04D0     		beq	.L148
 856 003e 474A     		ldr	r2, .L172+4
 857 0040 5368     		ldr	r3, [r2, #4]
 858 0042 43F4E063 		orr	r3, r3, #1792
 859 0046 5360     		str	r3, [r2, #4]
 860              	.L148:
 861 0048 2368     		ldr	r3, [r4]
 862 004a 13F0080F 		tst	r3, #8
 863 004e 04D0     		beq	.L149
 864 0050 424A     		ldr	r2, .L172+4
 865 0052 5368     		ldr	r3, [r2, #4]
 866 0054 43F46053 		orr	r3, r3, #14336
 867 0058 5360     		str	r3, [r2, #4]
ARM GAS  /tmp/ccmu29Tw.s 			page 16


 868              	.L149:
 869 005a 404A     		ldr	r2, .L172+4
 870 005c 5368     		ldr	r3, [r2, #4]
 871 005e 23F0F003 		bic	r3, r3, #240
 872 0062 A168     		ldr	r1, [r4, #8]
 873 0064 0B43     		orrs	r3, r3, r1
 874 0066 5360     		str	r3, [r2, #4]
 875              	.L147:
 876 0068 2368     		ldr	r3, [r4]
 877 006a 13F0010F 		tst	r3, #1
 878 006e 31D0     		beq	.L150
 879 0070 6368     		ldr	r3, [r4, #4]
 880 0072 012B     		cmp	r3, #1
 881 0074 20D0     		beq	.L170
 882 0076 022B     		cmp	r3, #2
 883 0078 25D0     		beq	.L171
 884 007a 384A     		ldr	r2, .L172+4
 885 007c 1268     		ldr	r2, [r2]
 886 007e 12F0020F 		tst	r2, #2
 887 0082 64D0     		beq	.L163
 888              	.L152:
 889 0084 3549     		ldr	r1, .L172+4
 890 0086 4A68     		ldr	r2, [r1, #4]
 891 0088 22F00302 		bic	r2, r2, #3
 892 008c 1343     		orrs	r3, r3, r2
 893 008e 4B60     		str	r3, [r1, #4]
 894 0090 FFF7FEFF 		bl	HAL_GetTick
 895 0094 0646     		mov	r6, r0
 896              	.L154:
 897 0096 314B     		ldr	r3, .L172+4
 898 0098 5B68     		ldr	r3, [r3, #4]
 899 009a 03F00C03 		and	r3, r3, #12
 900 009e 6268     		ldr	r2, [r4, #4]
 901 00a0 B3EB820F 		cmp	r3, r2, lsl #2
 902 00a4 16D0     		beq	.L150
 903 00a6 FFF7FEFF 		bl	HAL_GetTick
 904 00aa 801B     		subs	r0, r0, r6
 905 00ac 41F28833 		movw	r3, #5000
 906 00b0 9842     		cmp	r0, r3
 907 00b2 F0D9     		bls	.L154
 908 00b4 0320     		movs	r0, #3
 909 00b6 45E0     		b	.L145
 910              	.L170:
 911 00b8 284A     		ldr	r2, .L172+4
 912 00ba 1268     		ldr	r2, [r2]
 913 00bc 12F4003F 		tst	r2, #131072
 914 00c0 E0D1     		bne	.L152
 915 00c2 0120     		movs	r0, #1
 916 00c4 3EE0     		b	.L145
 917              	.L171:
 918 00c6 254A     		ldr	r2, .L172+4
 919 00c8 1268     		ldr	r2, [r2]
 920 00ca 12F0007F 		tst	r2, #33554432
 921 00ce D9D1     		bne	.L152
 922 00d0 0120     		movs	r0, #1
 923 00d2 37E0     		b	.L145
 924              	.L150:
ARM GAS  /tmp/ccmu29Tw.s 			page 17


 925 00d4 204B     		ldr	r3, .L172
 926 00d6 1B68     		ldr	r3, [r3]
 927 00d8 03F00703 		and	r3, r3, #7
 928 00dc AB42     		cmp	r3, r5
 929 00de 0AD9     		bls	.L156
 930 00e0 1D4A     		ldr	r2, .L172
 931 00e2 1368     		ldr	r3, [r2]
 932 00e4 23F00703 		bic	r3, r3, #7
 933 00e8 2B43     		orrs	r3, r3, r5
 934 00ea 1360     		str	r3, [r2]
 935 00ec 1368     		ldr	r3, [r2]
 936 00ee 03F00703 		and	r3, r3, #7
 937 00f2 AB42     		cmp	r3, r5
 938 00f4 2DD1     		bne	.L165
 939              	.L156:
 940 00f6 2368     		ldr	r3, [r4]
 941 00f8 13F0040F 		tst	r3, #4
 942 00fc 06D0     		beq	.L157
 943 00fe 174A     		ldr	r2, .L172+4
 944 0100 5368     		ldr	r3, [r2, #4]
 945 0102 23F4E063 		bic	r3, r3, #1792
 946 0106 E168     		ldr	r1, [r4, #12]
 947 0108 0B43     		orrs	r3, r3, r1
 948 010a 5360     		str	r3, [r2, #4]
 949              	.L157:
 950 010c 2368     		ldr	r3, [r4]
 951 010e 13F0080F 		tst	r3, #8
 952 0112 07D0     		beq	.L158
 953 0114 114A     		ldr	r2, .L172+4
 954 0116 5368     		ldr	r3, [r2, #4]
 955 0118 23F46053 		bic	r3, r3, #14336
 956 011c 2169     		ldr	r1, [r4, #16]
 957 011e 43EAC103 		orr	r3, r3, r1, lsl #3
 958 0122 5360     		str	r3, [r2, #4]
 959              	.L158:
 960 0124 FFF7FEFF 		bl	HAL_RCC_GetSysClockFreq
 961 0128 0C4B     		ldr	r3, .L172+4
 962 012a 5B68     		ldr	r3, [r3, #4]
 963 012c C3F30313 		ubfx	r3, r3, #4, #4
 964 0130 0B4A     		ldr	r2, .L172+8
 965 0132 D35C     		ldrb	r3, [r2, r3]	@ zero_extendqisi2
 966 0134 D840     		lsrs	r0, r0, r3
 967 0136 0B4B     		ldr	r3, .L172+12
 968 0138 1860     		str	r0, [r3]
 969 013a 0B4B     		ldr	r3, .L172+16
 970 013c 1868     		ldr	r0, [r3]
 971 013e FFF7FEFF 		bl	HAL_InitTick
 972 0142 0020     		movs	r0, #0
 973              	.L145:
 974 0144 70BD     		pop	{r4, r5, r6, pc}
 975              	.L159:
 976 0146 0120     		movs	r0, #1
 977 0148 7047     		bx	lr
 978              	.L160:
 979 014a 0120     		movs	r0, #1
 980 014c FAE7     		b	.L145
 981              	.L163:
ARM GAS  /tmp/ccmu29Tw.s 			page 18


 982 014e 0120     		movs	r0, #1
 983 0150 F8E7     		b	.L145
 984              	.L165:
 985 0152 0120     		movs	r0, #1
 986 0154 F6E7     		b	.L145
 987              	.L173:
 988 0156 00BF     		.align	2
 989              	.L172:
 990 0158 00200240 		.word	1073881088
 991 015c 00100240 		.word	1073876992
 992 0160 00000000 		.word	AHBPrescTable
 993 0164 00000000 		.word	SystemCoreClock
 994 0168 00000000 		.word	uwTickPrio
 996              		.section	.text.HAL_RCC_GetHCLKFreq,"ax",%progbits
 997              		.align	1
 998              		.global	HAL_RCC_GetHCLKFreq
 999              		.syntax unified
 1000              		.thumb
 1001              		.thumb_func
 1002              		.fpu softvfp
 1004              	HAL_RCC_GetHCLKFreq:
 1005              		@ args = 0, pretend = 0, frame = 0
 1006              		@ frame_needed = 0, uses_anonymous_args = 0
 1007              		@ link register save eliminated.
 1008 0000 014B     		ldr	r3, .L175
 1009 0002 1868     		ldr	r0, [r3]
 1010 0004 7047     		bx	lr
 1011              	.L176:
 1012 0006 00BF     		.align	2
 1013              	.L175:
 1014 0008 00000000 		.word	SystemCoreClock
 1016              		.section	.text.HAL_RCC_GetPCLK1Freq,"ax",%progbits
 1017              		.align	1
 1018              		.global	HAL_RCC_GetPCLK1Freq
 1019              		.syntax unified
 1020              		.thumb
 1021              		.thumb_func
 1022              		.fpu softvfp
 1024              	HAL_RCC_GetPCLK1Freq:
 1025              		@ args = 0, pretend = 0, frame = 0
 1026              		@ frame_needed = 0, uses_anonymous_args = 0
 1027 0000 08B5     		push	{r3, lr}
 1028 0002 FFF7FEFF 		bl	HAL_RCC_GetHCLKFreq
 1029 0006 044B     		ldr	r3, .L179
 1030 0008 5B68     		ldr	r3, [r3, #4]
 1031 000a C3F30223 		ubfx	r3, r3, #8, #3
 1032 000e 034A     		ldr	r2, .L179+4
 1033 0010 D35C     		ldrb	r3, [r2, r3]	@ zero_extendqisi2
 1034 0012 D840     		lsrs	r0, r0, r3
 1035 0014 08BD     		pop	{r3, pc}
 1036              	.L180:
 1037 0016 00BF     		.align	2
 1038              	.L179:
 1039 0018 00100240 		.word	1073876992
 1040 001c 00000000 		.word	APBPrescTable
 1042              		.section	.text.HAL_RCC_GetPCLK2Freq,"ax",%progbits
 1043              		.align	1
ARM GAS  /tmp/ccmu29Tw.s 			page 19


 1044              		.global	HAL_RCC_GetPCLK2Freq
 1045              		.syntax unified
 1046              		.thumb
 1047              		.thumb_func
 1048              		.fpu softvfp
 1050              	HAL_RCC_GetPCLK2Freq:
 1051              		@ args = 0, pretend = 0, frame = 0
 1052              		@ frame_needed = 0, uses_anonymous_args = 0
 1053 0000 08B5     		push	{r3, lr}
 1054 0002 FFF7FEFF 		bl	HAL_RCC_GetHCLKFreq
 1055 0006 044B     		ldr	r3, .L183
 1056 0008 5B68     		ldr	r3, [r3, #4]
 1057 000a C3F3C223 		ubfx	r3, r3, #11, #3
 1058 000e 034A     		ldr	r2, .L183+4
 1059 0010 D35C     		ldrb	r3, [r2, r3]	@ zero_extendqisi2
 1060 0012 D840     		lsrs	r0, r0, r3
 1061 0014 08BD     		pop	{r3, pc}
 1062              	.L184:
 1063 0016 00BF     		.align	2
 1064              	.L183:
 1065 0018 00100240 		.word	1073876992
 1066 001c 00000000 		.word	APBPrescTable
 1068              		.section	.text.HAL_RCC_GetOscConfig,"ax",%progbits
 1069              		.align	1
 1070              		.global	HAL_RCC_GetOscConfig
 1071              		.syntax unified
 1072              		.thumb
 1073              		.thumb_func
 1074              		.fpu softvfp
 1076              	HAL_RCC_GetOscConfig:
 1077              		@ args = 0, pretend = 0, frame = 0
 1078              		@ frame_needed = 0, uses_anonymous_args = 0
 1079              		@ link register save eliminated.
 1080 0000 0F23     		movs	r3, #15
 1081 0002 0360     		str	r3, [r0]
 1082 0004 2A4B     		ldr	r3, .L198
 1083 0006 1B68     		ldr	r3, [r3]
 1084 0008 13F4802F 		tst	r3, #262144
 1085 000c 30D0     		beq	.L186
 1086 000e 4FF4A023 		mov	r3, #327680
 1087 0012 4360     		str	r3, [r0, #4]
 1088              	.L187:
 1089 0014 264A     		ldr	r2, .L198
 1090 0016 5368     		ldr	r3, [r2, #4]
 1091 0018 03F40033 		and	r3, r3, #131072
 1092 001c 8360     		str	r3, [r0, #8]
 1093 001e 1368     		ldr	r3, [r2]
 1094 0020 13F0010F 		tst	r3, #1
 1095 0024 30D0     		beq	.L189
 1096 0026 0123     		movs	r3, #1
 1097 0028 0361     		str	r3, [r0, #16]
 1098              	.L190:
 1099 002a 214A     		ldr	r2, .L198
 1100 002c 1368     		ldr	r3, [r2]
 1101 002e C3F3C403 		ubfx	r3, r3, #3, #5
 1102 0032 4361     		str	r3, [r0, #20]
 1103 0034 136A     		ldr	r3, [r2, #32]
ARM GAS  /tmp/ccmu29Tw.s 			page 20


 1104 0036 13F0040F 		tst	r3, #4
 1105 003a 28D0     		beq	.L191
 1106 003c 0523     		movs	r3, #5
 1107 003e C360     		str	r3, [r0, #12]
 1108              	.L192:
 1109 0040 1B4B     		ldr	r3, .L198
 1110 0042 5B6A     		ldr	r3, [r3, #36]
 1111 0044 13F0010F 		tst	r3, #1
 1112 0048 2CD0     		beq	.L194
 1113 004a 0123     		movs	r3, #1
 1114 004c 8361     		str	r3, [r0, #24]
 1115              	.L195:
 1116 004e 184B     		ldr	r3, .L198
 1117 0050 1B68     		ldr	r3, [r3]
 1118 0052 13F0807F 		tst	r3, #16777216
 1119 0056 28D0     		beq	.L196
 1120 0058 0223     		movs	r3, #2
 1121 005a C361     		str	r3, [r0, #28]
 1122              	.L197:
 1123 005c 144A     		ldr	r2, .L198
 1124 005e 5368     		ldr	r3, [r2, #4]
 1125 0060 03F48033 		and	r3, r3, #65536
 1126 0064 0362     		str	r3, [r0, #32]
 1127 0066 5368     		ldr	r3, [r2, #4]
 1128 0068 03F47013 		and	r3, r3, #3932160
 1129 006c 4362     		str	r3, [r0, #36]
 1130 006e 7047     		bx	lr
 1131              	.L186:
 1132 0070 0F4B     		ldr	r3, .L198
 1133 0072 1B68     		ldr	r3, [r3]
 1134 0074 13F4803F 		tst	r3, #65536
 1135 0078 03D0     		beq	.L188
 1136 007a 4FF48033 		mov	r3, #65536
 1137 007e 4360     		str	r3, [r0, #4]
 1138 0080 C8E7     		b	.L187
 1139              	.L188:
 1140 0082 0023     		movs	r3, #0
 1141 0084 4360     		str	r3, [r0, #4]
 1142 0086 C5E7     		b	.L187
 1143              	.L189:
 1144 0088 0023     		movs	r3, #0
 1145 008a 0361     		str	r3, [r0, #16]
 1146 008c CDE7     		b	.L190
 1147              	.L191:
 1148 008e 084B     		ldr	r3, .L198
 1149 0090 1B6A     		ldr	r3, [r3, #32]
 1150 0092 13F0010F 		tst	r3, #1
 1151 0096 02D0     		beq	.L193
 1152 0098 0123     		movs	r3, #1
 1153 009a C360     		str	r3, [r0, #12]
 1154 009c D0E7     		b	.L192
 1155              	.L193:
 1156 009e 0023     		movs	r3, #0
 1157 00a0 C360     		str	r3, [r0, #12]
 1158 00a2 CDE7     		b	.L192
 1159              	.L194:
 1160 00a4 0023     		movs	r3, #0
ARM GAS  /tmp/ccmu29Tw.s 			page 21


 1161 00a6 8361     		str	r3, [r0, #24]
 1162 00a8 D1E7     		b	.L195
 1163              	.L196:
 1164 00aa 0123     		movs	r3, #1
 1165 00ac C361     		str	r3, [r0, #28]
 1166 00ae D5E7     		b	.L197
 1167              	.L199:
 1168              		.align	2
 1169              	.L198:
 1170 00b0 00100240 		.word	1073876992
 1172              		.section	.text.HAL_RCC_GetClockConfig,"ax",%progbits
 1173              		.align	1
 1174              		.global	HAL_RCC_GetClockConfig
 1175              		.syntax unified
 1176              		.thumb
 1177              		.thumb_func
 1178              		.fpu softvfp
 1180              	HAL_RCC_GetClockConfig:
 1181              		@ args = 0, pretend = 0, frame = 0
 1182              		@ frame_needed = 0, uses_anonymous_args = 0
 1183              		@ link register save eliminated.
 1184 0000 0F23     		movs	r3, #15
 1185 0002 0360     		str	r3, [r0]
 1186 0004 0B4B     		ldr	r3, .L201
 1187 0006 5A68     		ldr	r2, [r3, #4]
 1188 0008 02F00302 		and	r2, r2, #3
 1189 000c 4260     		str	r2, [r0, #4]
 1190 000e 5A68     		ldr	r2, [r3, #4]
 1191 0010 02F0F002 		and	r2, r2, #240
 1192 0014 8260     		str	r2, [r0, #8]
 1193 0016 5A68     		ldr	r2, [r3, #4]
 1194 0018 02F4E062 		and	r2, r2, #1792
 1195 001c C260     		str	r2, [r0, #12]
 1196 001e 5B68     		ldr	r3, [r3, #4]
 1197 0020 DB08     		lsrs	r3, r3, #3
 1198 0022 03F4E063 		and	r3, r3, #1792
 1199 0026 0361     		str	r3, [r0, #16]
 1200 0028 034B     		ldr	r3, .L201+4
 1201 002a 1B68     		ldr	r3, [r3]
 1202 002c 03F00703 		and	r3, r3, #7
 1203 0030 0B60     		str	r3, [r1]
 1204 0032 7047     		bx	lr
 1205              	.L202:
 1206              		.align	2
 1207              	.L201:
 1208 0034 00100240 		.word	1073876992
 1209 0038 00200240 		.word	1073881088
 1211              		.section	.text.HAL_RCC_CSSCallback,"ax",%progbits
 1212              		.align	1
 1213              		.weak	HAL_RCC_CSSCallback
 1214              		.syntax unified
 1215              		.thumb
 1216              		.thumb_func
 1217              		.fpu softvfp
 1219              	HAL_RCC_CSSCallback:
 1220              		@ args = 0, pretend = 0, frame = 0
 1221              		@ frame_needed = 0, uses_anonymous_args = 0
ARM GAS  /tmp/ccmu29Tw.s 			page 22


 1222              		@ link register save eliminated.
 1223 0000 7047     		bx	lr
 1225              		.section	.text.HAL_RCC_NMI_IRQHandler,"ax",%progbits
 1226              		.align	1
 1227              		.global	HAL_RCC_NMI_IRQHandler
 1228              		.syntax unified
 1229              		.thumb
 1230              		.thumb_func
 1231              		.fpu softvfp
 1233              	HAL_RCC_NMI_IRQHandler:
 1234              		@ args = 0, pretend = 0, frame = 0
 1235              		@ frame_needed = 0, uses_anonymous_args = 0
 1236 0000 08B5     		push	{r3, lr}
 1237 0002 064B     		ldr	r3, .L208
 1238 0004 9B68     		ldr	r3, [r3, #8]
 1239 0006 13F0800F 		tst	r3, #128
 1240 000a 00D1     		bne	.L207
 1241              	.L204:
 1242 000c 08BD     		pop	{r3, pc}
 1243              	.L207:
 1244 000e FFF7FEFF 		bl	HAL_RCC_CSSCallback
 1245 0012 034B     		ldr	r3, .L208+4
 1246 0014 8022     		movs	r2, #128
 1247 0016 1A70     		strb	r2, [r3]
 1248 0018 F8E7     		b	.L204
 1249              	.L209:
 1250 001a 00BF     		.align	2
 1251              	.L208:
 1252 001c 00100240 		.word	1073876992
 1253 0020 0A100240 		.word	1073877002
 1255              		.ident	"GCC: (15:9-2019-q4-0ubuntu1) 9.2.1 20191025 (release) [ARM/arm-9-branch revision 277599]"
ARM GAS  /tmp/ccmu29Tw.s 			page 23

