ARM GAS  /tmp/ccV3RwjH.s 			page 1


   1              		.cpu cortex-m3
   2              		.eabi_attribute 20, 1
   3              		.eabi_attribute 21, 1
   4              		.eabi_attribute 23, 3
   5              		.eabi_attribute 24, 1
   6              		.eabi_attribute 25, 1
   7              		.eabi_attribute 26, 1
   8              		.eabi_attribute 30, 1
   9              		.eabi_attribute 34, 1
  10              		.eabi_attribute 18, 4
  11              		.file	"stm32f1xx_hal_flash_ex.c"
  12              		.text
  13              		.section	.text.FLASH_MassErase,"ax",%progbits
  14              		.align	1
  15              		.arch armv7-m
  16              		.syntax unified
  17              		.thumb
  18              		.thumb_func
  19              		.fpu softvfp
  21              	FLASH_MassErase:
  22              		@ args = 0, pretend = 0, frame = 0
  23              		@ frame_needed = 0, uses_anonymous_args = 0
  24              		@ link register save eliminated.
  25 0000 064B     		ldr	r3, .L2
  26 0002 0022     		movs	r2, #0
  27 0004 DA61     		str	r2, [r3, #28]
  28 0006 064B     		ldr	r3, .L2+4
  29 0008 1A69     		ldr	r2, [r3, #16]
  30 000a 42F00402 		orr	r2, r2, #4
  31 000e 1A61     		str	r2, [r3, #16]
  32 0010 1A69     		ldr	r2, [r3, #16]
  33 0012 42F04002 		orr	r2, r2, #64
  34 0016 1A61     		str	r2, [r3, #16]
  35 0018 7047     		bx	lr
  36              	.L3:
  37 001a 00BF     		.align	2
  38              	.L2:
  39 001c 00000000 		.word	pFlash
  40 0020 00200240 		.word	1073881088
  42              		.section	.text.FLASH_OB_GetWRP,"ax",%progbits
  43              		.align	1
  44              		.syntax unified
  45              		.thumb
  46              		.thumb_func
  47              		.fpu softvfp
  49              	FLASH_OB_GetWRP:
  50              		@ args = 0, pretend = 0, frame = 0
  51              		@ frame_needed = 0, uses_anonymous_args = 0
  52              		@ link register save eliminated.
  53 0000 014B     		ldr	r3, .L5
  54 0002 186A     		ldr	r0, [r3, #32]
  55 0004 7047     		bx	lr
  56              	.L6:
  57 0006 00BF     		.align	2
  58              	.L5:
  59 0008 00200240 		.word	1073881088
  61              		.section	.text.FLASH_OB_GetRDP,"ax",%progbits
ARM GAS  /tmp/ccV3RwjH.s 			page 2


  62              		.align	1
  63              		.syntax unified
  64              		.thumb
  65              		.thumb_func
  66              		.fpu softvfp
  68              	FLASH_OB_GetRDP:
  69              		@ args = 0, pretend = 0, frame = 0
  70              		@ frame_needed = 0, uses_anonymous_args = 0
  71              		@ link register save eliminated.
  72 0000 044B     		ldr	r3, .L10
  73 0002 DB69     		ldr	r3, [r3, #28]
  74 0004 13F0020F 		tst	r3, #2
  75 0008 01D0     		beq	.L9
  76 000a 0020     		movs	r0, #0
  77 000c 7047     		bx	lr
  78              	.L9:
  79 000e A520     		movs	r0, #165
  80 0010 7047     		bx	lr
  81              	.L11:
  82 0012 00BF     		.align	2
  83              	.L10:
  84 0014 00200240 		.word	1073881088
  86              		.section	.text.FLASH_OB_GetUser,"ax",%progbits
  87              		.align	1
  88              		.syntax unified
  89              		.thumb
  90              		.thumb_func
  91              		.fpu softvfp
  93              	FLASH_OB_GetUser:
  94              		@ args = 0, pretend = 0, frame = 0
  95              		@ frame_needed = 0, uses_anonymous_args = 0
  96              		@ link register save eliminated.
  97 0000 024B     		ldr	r3, .L13
  98 0002 D869     		ldr	r0, [r3, #28]
  99 0004 C0F38200 		ubfx	r0, r0, #2, #3
 100 0008 7047     		bx	lr
 101              	.L14:
 102 000a 00BF     		.align	2
 103              	.L13:
 104 000c 00200240 		.word	1073881088
 106              		.section	.text.FLASH_OB_RDP_LevelConfig,"ax",%progbits
 107              		.align	1
 108              		.syntax unified
 109              		.thumb
 110              		.thumb_func
 111              		.fpu softvfp
 113              	FLASH_OB_RDP_LevelConfig:
 114              		@ args = 0, pretend = 0, frame = 0
 115              		@ frame_needed = 0, uses_anonymous_args = 0
 116 0000 38B5     		push	{r3, r4, r5, lr}
 117 0002 0546     		mov	r5, r0
 118 0004 4CF25030 		movw	r0, #50000
 119 0008 FFF7FEFF 		bl	FLASH_WaitForLastOperation
 120 000c 00B1     		cbz	r0, .L18
 121              	.L16:
 122 000e 38BD     		pop	{r3, r4, r5, pc}
 123              	.L18:
ARM GAS  /tmp/ccV3RwjH.s 			page 3


 124 0010 124B     		ldr	r3, .L19
 125 0012 0022     		movs	r2, #0
 126 0014 DA61     		str	r2, [r3, #28]
 127 0016 124C     		ldr	r4, .L19+4
 128 0018 2369     		ldr	r3, [r4, #16]
 129 001a 43F02003 		orr	r3, r3, #32
 130 001e 2361     		str	r3, [r4, #16]
 131 0020 2369     		ldr	r3, [r4, #16]
 132 0022 43F04003 		orr	r3, r3, #64
 133 0026 2361     		str	r3, [r4, #16]
 134 0028 4CF25030 		movw	r0, #50000
 135 002c FFF7FEFF 		bl	FLASH_WaitForLastOperation
 136 0030 2369     		ldr	r3, [r4, #16]
 137 0032 23F02003 		bic	r3, r3, #32
 138 0036 2361     		str	r3, [r4, #16]
 139 0038 0028     		cmp	r0, #0
 140 003a E8D1     		bne	.L16
 141 003c 2369     		ldr	r3, [r4, #16]
 142 003e 43F01003 		orr	r3, r3, #16
 143 0042 2361     		str	r3, [r4, #16]
 144 0044 A8B2     		uxth	r0, r5
 145 0046 074B     		ldr	r3, .L19+8
 146 0048 1880     		strh	r0, [r3]	@ movhi
 147 004a 4CF25030 		movw	r0, #50000
 148 004e FFF7FEFF 		bl	FLASH_WaitForLastOperation
 149 0052 2369     		ldr	r3, [r4, #16]
 150 0054 23F01003 		bic	r3, r3, #16
 151 0058 2361     		str	r3, [r4, #16]
 152 005a D8E7     		b	.L16
 153              	.L20:
 154              		.align	2
 155              	.L19:
 156 005c 00000000 		.word	pFlash
 157 0060 00200240 		.word	1073881088
 158 0064 00F8FF1F 		.word	536868864
 160              		.section	.text.FLASH_OB_UserConfig,"ax",%progbits
 161              		.align	1
 162              		.syntax unified
 163              		.thumb
 164              		.thumb_func
 165              		.fpu softvfp
 167              	FLASH_OB_UserConfig:
 168              		@ args = 0, pretend = 0, frame = 0
 169              		@ frame_needed = 0, uses_anonymous_args = 0
 170 0000 38B5     		push	{r3, r4, r5, lr}
 171 0002 0446     		mov	r4, r0
 172 0004 4CF25030 		movw	r0, #50000
 173 0008 FFF7FEFF 		bl	FLASH_WaitForLastOperation
 174 000c 00B1     		cbz	r0, .L24
 175              	.L22:
 176 000e 38BD     		pop	{r3, r4, r5, pc}
 177              	.L24:
 178 0010 0A4B     		ldr	r3, .L25
 179 0012 0022     		movs	r2, #0
 180 0014 DA61     		str	r2, [r3, #28]
 181 0016 0A4D     		ldr	r5, .L25+4
 182 0018 2B69     		ldr	r3, [r5, #16]
ARM GAS  /tmp/ccV3RwjH.s 			page 4


 183 001a 43F01003 		orr	r3, r3, #16
 184 001e 2B61     		str	r3, [r5, #16]
 185 0020 44F08800 		orr	r0, r4, #136
 186 0024 074B     		ldr	r3, .L25+8
 187 0026 5880     		strh	r0, [r3, #2]	@ movhi
 188 0028 4CF25030 		movw	r0, #50000
 189 002c FFF7FEFF 		bl	FLASH_WaitForLastOperation
 190 0030 2B69     		ldr	r3, [r5, #16]
 191 0032 23F01003 		bic	r3, r3, #16
 192 0036 2B61     		str	r3, [r5, #16]
 193 0038 E9E7     		b	.L22
 194              	.L26:
 195 003a 00BF     		.align	2
 196              	.L25:
 197 003c 00000000 		.word	pFlash
 198 0040 00200240 		.word	1073881088
 199 0044 00F8FF1F 		.word	536868864
 201              		.section	.text.FLASH_OB_ProgramData,"ax",%progbits
 202              		.align	1
 203              		.syntax unified
 204              		.thumb
 205              		.thumb_func
 206              		.fpu softvfp
 208              	FLASH_OB_ProgramData:
 209              		@ args = 0, pretend = 0, frame = 0
 210              		@ frame_needed = 0, uses_anonymous_args = 0
 211 0000 70B5     		push	{r4, r5, r6, lr}
 212 0002 0546     		mov	r5, r0
 213 0004 0C46     		mov	r4, r1
 214 0006 4CF25030 		movw	r0, #50000
 215 000a FFF7FEFF 		bl	FLASH_WaitForLastOperation
 216 000e 00B1     		cbz	r0, .L30
 217              	.L28:
 218 0010 70BD     		pop	{r4, r5, r6, pc}
 219              	.L30:
 220 0012 094B     		ldr	r3, .L31
 221 0014 0022     		movs	r2, #0
 222 0016 DA61     		str	r2, [r3, #28]
 223 0018 084E     		ldr	r6, .L31+4
 224 001a 3369     		ldr	r3, [r6, #16]
 225 001c 43F01003 		orr	r3, r3, #16
 226 0020 3361     		str	r3, [r6, #16]
 227 0022 A1B2     		uxth	r1, r4
 228 0024 2980     		strh	r1, [r5]	@ movhi
 229 0026 4CF25030 		movw	r0, #50000
 230 002a FFF7FEFF 		bl	FLASH_WaitForLastOperation
 231 002e 3369     		ldr	r3, [r6, #16]
 232 0030 23F01003 		bic	r3, r3, #16
 233 0034 3361     		str	r3, [r6, #16]
 234 0036 EBE7     		b	.L28
 235              	.L32:
 236              		.align	2
 237              	.L31:
 238 0038 00000000 		.word	pFlash
 239 003c 00200240 		.word	1073881088
 241              		.section	.text.HAL_FLASHEx_OBErase,"ax",%progbits
 242              		.align	1
ARM GAS  /tmp/ccV3RwjH.s 			page 5


 243              		.global	HAL_FLASHEx_OBErase
 244              		.syntax unified
 245              		.thumb
 246              		.thumb_func
 247              		.fpu softvfp
 249              	HAL_FLASHEx_OBErase:
 250              		@ args = 0, pretend = 0, frame = 0
 251              		@ frame_needed = 0, uses_anonymous_args = 0
 252 0000 38B5     		push	{r3, r4, r5, lr}
 253 0002 FFF7FEFF 		bl	FLASH_OB_GetRDP
 254 0006 C5B2     		uxtb	r5, r0
 255 0008 4CF25030 		movw	r0, #50000
 256 000c FFF7FEFF 		bl	FLASH_WaitForLastOperation
 257 0010 00B1     		cbz	r0, .L36
 258              	.L34:
 259 0012 38BD     		pop	{r3, r4, r5, pc}
 260              	.L36:
 261 0014 0C4B     		ldr	r3, .L37
 262 0016 0022     		movs	r2, #0
 263 0018 DA61     		str	r2, [r3, #28]
 264 001a 0C4C     		ldr	r4, .L37+4
 265 001c 2369     		ldr	r3, [r4, #16]
 266 001e 43F02003 		orr	r3, r3, #32
 267 0022 2361     		str	r3, [r4, #16]
 268 0024 2369     		ldr	r3, [r4, #16]
 269 0026 43F04003 		orr	r3, r3, #64
 270 002a 2361     		str	r3, [r4, #16]
 271 002c 4CF25030 		movw	r0, #50000
 272 0030 FFF7FEFF 		bl	FLASH_WaitForLastOperation
 273 0034 2369     		ldr	r3, [r4, #16]
 274 0036 23F02003 		bic	r3, r3, #32
 275 003a 2361     		str	r3, [r4, #16]
 276 003c 0028     		cmp	r0, #0
 277 003e E8D1     		bne	.L34
 278 0040 2846     		mov	r0, r5
 279 0042 FFF7FEFF 		bl	FLASH_OB_RDP_LevelConfig
 280 0046 E4E7     		b	.L34
 281              	.L38:
 282              		.align	2
 283              	.L37:
 284 0048 00000000 		.word	pFlash
 285 004c 00200240 		.word	1073881088
 287              		.section	.text.FLASH_OB_EnableWRP,"ax",%progbits
 288              		.align	1
 289              		.syntax unified
 290              		.thumb
 291              		.thumb_func
 292              		.fpu softvfp
 294              	FLASH_OB_EnableWRP:
 295              		@ args = 0, pretend = 0, frame = 0
 296              		@ frame_needed = 0, uses_anonymous_args = 0
 297 0000 F8B5     		push	{r3, r4, r5, r6, r7, lr}
 298 0002 0446     		mov	r4, r0
 299 0004 FFF7FEFF 		bl	FLASH_OB_GetWRP
 300 0008 20EA0400 		bic	r0, r0, r4
 301 000c C5B2     		uxtb	r5, r0
 302 000e C0F30727 		ubfx	r7, r0, #8, #8
ARM GAS  /tmp/ccV3RwjH.s 			page 6


 303 0012 C0F30746 		ubfx	r6, r0, #16, #8
 304 0016 040E     		lsrs	r4, r0, #24
 305 0018 4CF25030 		movw	r0, #50000
 306 001c FFF7FEFF 		bl	FLASH_WaitForLastOperation
 307 0020 0346     		mov	r3, r0
 308 0022 08B1     		cbz	r0, .L46
 309              	.L40:
 310 0024 1846     		mov	r0, r3
 311 0026 F8BD     		pop	{r3, r4, r5, r6, r7, pc}
 312              	.L46:
 313 0028 224B     		ldr	r3, .L51
 314 002a 0022     		movs	r2, #0
 315 002c DA61     		str	r2, [r3, #28]
 316 002e FFF7FEFF 		bl	HAL_FLASHEx_OBErase
 317 0032 0346     		mov	r3, r0
 318 0034 0028     		cmp	r0, #0
 319 0036 F5D1     		bne	.L40
 320 0038 1F49     		ldr	r1, .L51+4
 321 003a 0A69     		ldr	r2, [r1, #16]
 322 003c 42F01002 		orr	r2, r2, #16
 323 0040 0A61     		str	r2, [r1, #16]
 324 0042 FF2D     		cmp	r5, #255
 325 0044 0ED1     		bne	.L47
 326              	.L41:
 327 0046 0BB9     		cbnz	r3, .L42
 328 0048 FF2F     		cmp	r7, #255
 329 004a 15D1     		bne	.L48
 330              	.L42:
 331 004c 0BB9     		cbnz	r3, .L43
 332 004e FF2E     		cmp	r6, #255
 333 0050 1CD1     		bne	.L49
 334              	.L43:
 335 0052 0BB9     		cbnz	r3, .L44
 336 0054 FF2C     		cmp	r4, #255
 337 0056 23D1     		bne	.L50
 338              	.L44:
 339 0058 1749     		ldr	r1, .L51+4
 340 005a 0A69     		ldr	r2, [r1, #16]
 341 005c 22F01002 		bic	r2, r2, #16
 342 0060 0A61     		str	r2, [r1, #16]
 343 0062 DFE7     		b	.L40
 344              	.L47:
 345 0064 154B     		ldr	r3, .L51+8
 346 0066 1A89     		ldrh	r2, [r3, #8]
 347 0068 1540     		ands	r5, r5, r2
 348 006a 1D81     		strh	r5, [r3, #8]	@ movhi
 349 006c 4CF25030 		movw	r0, #50000
 350 0070 FFF7FEFF 		bl	FLASH_WaitForLastOperation
 351 0074 0346     		mov	r3, r0
 352 0076 E6E7     		b	.L41
 353              	.L48:
 354 0078 104B     		ldr	r3, .L51+8
 355 007a 5A89     		ldrh	r2, [r3, #10]
 356 007c 1740     		ands	r7, r7, r2
 357 007e 5F81     		strh	r7, [r3, #10]	@ movhi
 358 0080 4CF25030 		movw	r0, #50000
 359 0084 FFF7FEFF 		bl	FLASH_WaitForLastOperation
ARM GAS  /tmp/ccV3RwjH.s 			page 7


 360 0088 0346     		mov	r3, r0
 361 008a DFE7     		b	.L42
 362              	.L49:
 363 008c 0B4B     		ldr	r3, .L51+8
 364 008e 9A89     		ldrh	r2, [r3, #12]
 365 0090 1640     		ands	r6, r6, r2
 366 0092 9E81     		strh	r6, [r3, #12]	@ movhi
 367 0094 4CF25030 		movw	r0, #50000
 368 0098 FFF7FEFF 		bl	FLASH_WaitForLastOperation
 369 009c 0346     		mov	r3, r0
 370 009e D8E7     		b	.L43
 371              	.L50:
 372 00a0 064B     		ldr	r3, .L51+8
 373 00a2 D889     		ldrh	r0, [r3, #14]
 374 00a4 2040     		ands	r0, r0, r4
 375 00a6 D881     		strh	r0, [r3, #14]	@ movhi
 376 00a8 4CF25030 		movw	r0, #50000
 377 00ac FFF7FEFF 		bl	FLASH_WaitForLastOperation
 378 00b0 0346     		mov	r3, r0
 379 00b2 D1E7     		b	.L44
 380              	.L52:
 381              		.align	2
 382              	.L51:
 383 00b4 00000000 		.word	pFlash
 384 00b8 00200240 		.word	1073881088
 385 00bc 00F8FF1F 		.word	536868864
 387              		.section	.text.FLASH_OB_DisableWRP,"ax",%progbits
 388              		.align	1
 389              		.syntax unified
 390              		.thumb
 391              		.thumb_func
 392              		.fpu softvfp
 394              	FLASH_OB_DisableWRP:
 395              		@ args = 0, pretend = 0, frame = 0
 396              		@ frame_needed = 0, uses_anonymous_args = 0
 397 0000 F8B5     		push	{r3, r4, r5, r6, r7, lr}
 398 0002 0446     		mov	r4, r0
 399 0004 FFF7FEFF 		bl	FLASH_OB_GetWRP
 400 0008 2043     		orrs	r0, r0, r4
 401 000a C5B2     		uxtb	r5, r0
 402 000c C0F30727 		ubfx	r7, r0, #8, #8
 403 0010 C0F30746 		ubfx	r6, r0, #16, #8
 404 0014 040E     		lsrs	r4, r0, #24
 405 0016 4CF25030 		movw	r0, #50000
 406 001a FFF7FEFF 		bl	FLASH_WaitForLastOperation
 407 001e 0346     		mov	r3, r0
 408 0020 08B1     		cbz	r0, .L60
 409              	.L54:
 410 0022 1846     		mov	r0, r3
 411 0024 F8BD     		pop	{r3, r4, r5, r6, r7, pc}
 412              	.L60:
 413 0026 254B     		ldr	r3, .L65
 414 0028 0022     		movs	r2, #0
 415 002a DA61     		str	r2, [r3, #28]
 416 002c FFF7FEFF 		bl	HAL_FLASHEx_OBErase
 417 0030 0346     		mov	r3, r0
 418 0032 0028     		cmp	r0, #0
ARM GAS  /tmp/ccV3RwjH.s 			page 8


 419 0034 F5D1     		bne	.L54
 420 0036 2249     		ldr	r1, .L65+4
 421 0038 0A69     		ldr	r2, [r1, #16]
 422 003a 42F01002 		orr	r2, r2, #16
 423 003e 0A61     		str	r2, [r1, #16]
 424 0040 FF2D     		cmp	r5, #255
 425 0042 0ED1     		bne	.L61
 426              	.L55:
 427 0044 0BB9     		cbnz	r3, .L56
 428 0046 FF2F     		cmp	r7, #255
 429 0048 16D1     		bne	.L62
 430              	.L56:
 431 004a 0BB9     		cbnz	r3, .L57
 432 004c FF2E     		cmp	r6, #255
 433 004e 1ED1     		bne	.L63
 434              	.L57:
 435 0050 0BB9     		cbnz	r3, .L58
 436 0052 FF2C     		cmp	r4, #255
 437 0054 26D1     		bne	.L64
 438              	.L58:
 439 0056 1A49     		ldr	r1, .L65+4
 440 0058 0A69     		ldr	r2, [r1, #16]
 441 005a 22F01002 		bic	r2, r2, #16
 442 005e 0A61     		str	r2, [r1, #16]
 443 0060 DFE7     		b	.L54
 444              	.L61:
 445 0062 184A     		ldr	r2, .L65+8
 446 0064 1389     		ldrh	r3, [r2, #8]
 447 0066 9BB2     		uxth	r3, r3
 448 0068 1D43     		orrs	r5, r5, r3
 449 006a 1581     		strh	r5, [r2, #8]	@ movhi
 450 006c 4CF25030 		movw	r0, #50000
 451 0070 FFF7FEFF 		bl	FLASH_WaitForLastOperation
 452 0074 0346     		mov	r3, r0
 453 0076 E5E7     		b	.L55
 454              	.L62:
 455 0078 124A     		ldr	r2, .L65+8
 456 007a 5389     		ldrh	r3, [r2, #10]
 457 007c 9BB2     		uxth	r3, r3
 458 007e 1F43     		orrs	r7, r7, r3
 459 0080 5781     		strh	r7, [r2, #10]	@ movhi
 460 0082 4CF25030 		movw	r0, #50000
 461 0086 FFF7FEFF 		bl	FLASH_WaitForLastOperation
 462 008a 0346     		mov	r3, r0
 463 008c DDE7     		b	.L56
 464              	.L63:
 465 008e 0D4A     		ldr	r2, .L65+8
 466 0090 9389     		ldrh	r3, [r2, #12]
 467 0092 9BB2     		uxth	r3, r3
 468 0094 1E43     		orrs	r6, r6, r3
 469 0096 9681     		strh	r6, [r2, #12]	@ movhi
 470 0098 4CF25030 		movw	r0, #50000
 471 009c FFF7FEFF 		bl	FLASH_WaitForLastOperation
 472 00a0 0346     		mov	r3, r0
 473 00a2 D5E7     		b	.L57
 474              	.L64:
 475 00a4 074B     		ldr	r3, .L65+8
ARM GAS  /tmp/ccV3RwjH.s 			page 9


 476 00a6 D889     		ldrh	r0, [r3, #14]
 477 00a8 80B2     		uxth	r0, r0
 478 00aa 2043     		orrs	r0, r0, r4
 479 00ac D881     		strh	r0, [r3, #14]	@ movhi
 480 00ae 4CF25030 		movw	r0, #50000
 481 00b2 FFF7FEFF 		bl	FLASH_WaitForLastOperation
 482 00b6 0346     		mov	r3, r0
 483 00b8 CDE7     		b	.L58
 484              	.L66:
 485 00ba 00BF     		.align	2
 486              	.L65:
 487 00bc 00000000 		.word	pFlash
 488 00c0 00200240 		.word	1073881088
 489 00c4 00F8FF1F 		.word	536868864
 491              		.section	.text.HAL_FLASHEx_OBProgram,"ax",%progbits
 492              		.align	1
 493              		.global	HAL_FLASHEx_OBProgram
 494              		.syntax unified
 495              		.thumb
 496              		.thumb_func
 497              		.fpu softvfp
 499              	HAL_FLASHEx_OBProgram:
 500              		@ args = 0, pretend = 0, frame = 0
 501              		@ frame_needed = 0, uses_anonymous_args = 0
 502 0000 254B     		ldr	r3, .L85
 503 0002 1B7E     		ldrb	r3, [r3, #24]	@ zero_extendqisi2
 504 0004 012B     		cmp	r3, #1
 505 0006 44D0     		beq	.L75
 506 0008 10B5     		push	{r4, lr}
 507 000a 0446     		mov	r4, r0
 508 000c 224B     		ldr	r3, .L85
 509 000e 0122     		movs	r2, #1
 510 0010 1A76     		strb	r2, [r3, #24]
 511 0012 0368     		ldr	r3, [r0]
 512 0014 13F0010F 		tst	r3, #1
 513 0018 0ED0     		beq	.L76
 514 001a 4368     		ldr	r3, [r0, #4]
 515 001c 9342     		cmp	r3, r2
 516 001e 07D0     		beq	.L81
 517 0020 8068     		ldr	r0, [r0, #8]
 518 0022 FFF7FEFF 		bl	FLASH_OB_DisableWRP
 519              	.L71:
 520 0026 40B1     		cbz	r0, .L69
 521 0028 1B4B     		ldr	r3, .L85
 522 002a 0022     		movs	r2, #0
 523 002c 1A76     		strb	r2, [r3, #24]
 524 002e 13E0     		b	.L68
 525              	.L81:
 526 0030 8068     		ldr	r0, [r0, #8]
 527 0032 FFF7FEFF 		bl	FLASH_OB_EnableWRP
 528 0036 F6E7     		b	.L71
 529              	.L76:
 530 0038 0120     		movs	r0, #1
 531              	.L69:
 532 003a 2368     		ldr	r3, [r4]
 533 003c 13F0020F 		tst	r3, #2
 534 0040 0BD1     		bne	.L82
ARM GAS  /tmp/ccV3RwjH.s 			page 10


 535              	.L72:
 536 0042 2368     		ldr	r3, [r4]
 537 0044 13F0040F 		tst	r3, #4
 538 0048 10D1     		bne	.L83
 539              	.L73:
 540 004a 2368     		ldr	r3, [r4]
 541 004c 13F0080F 		tst	r3, #8
 542 0050 15D1     		bne	.L84
 543              	.L74:
 544 0052 114B     		ldr	r3, .L85
 545 0054 0022     		movs	r2, #0
 546 0056 1A76     		strb	r2, [r3, #24]
 547              	.L68:
 548 0058 10BD     		pop	{r4, pc}
 549              	.L82:
 550 005a 207C     		ldrb	r0, [r4, #16]	@ zero_extendqisi2
 551 005c FFF7FEFF 		bl	FLASH_OB_RDP_LevelConfig
 552 0060 0028     		cmp	r0, #0
 553 0062 EED0     		beq	.L72
 554 0064 0C4B     		ldr	r3, .L85
 555 0066 0022     		movs	r2, #0
 556 0068 1A76     		strb	r2, [r3, #24]
 557 006a F5E7     		b	.L68
 558              	.L83:
 559 006c 607C     		ldrb	r0, [r4, #17]	@ zero_extendqisi2
 560 006e FFF7FEFF 		bl	FLASH_OB_UserConfig
 561 0072 0028     		cmp	r0, #0
 562 0074 E9D0     		beq	.L73
 563 0076 084B     		ldr	r3, .L85
 564 0078 0022     		movs	r2, #0
 565 007a 1A76     		strb	r2, [r3, #24]
 566 007c ECE7     		b	.L68
 567              	.L84:
 568 007e 217E     		ldrb	r1, [r4, #24]	@ zero_extendqisi2
 569 0080 6069     		ldr	r0, [r4, #20]
 570 0082 FFF7FEFF 		bl	FLASH_OB_ProgramData
 571 0086 0028     		cmp	r0, #0
 572 0088 E3D0     		beq	.L74
 573 008a 034B     		ldr	r3, .L85
 574 008c 0022     		movs	r2, #0
 575 008e 1A76     		strb	r2, [r3, #24]
 576 0090 E2E7     		b	.L68
 577              	.L75:
 578 0092 0220     		movs	r0, #2
 579 0094 7047     		bx	lr
 580              	.L86:
 581 0096 00BF     		.align	2
 582              	.L85:
 583 0098 00000000 		.word	pFlash
 585              		.section	.text.HAL_FLASHEx_OBGetConfig,"ax",%progbits
 586              		.align	1
 587              		.global	HAL_FLASHEx_OBGetConfig
 588              		.syntax unified
 589              		.thumb
 590              		.thumb_func
 591              		.fpu softvfp
 593              	HAL_FLASHEx_OBGetConfig:
ARM GAS  /tmp/ccV3RwjH.s 			page 11


 594              		@ args = 0, pretend = 0, frame = 0
 595              		@ frame_needed = 0, uses_anonymous_args = 0
 596 0000 10B5     		push	{r4, lr}
 597 0002 0446     		mov	r4, r0
 598 0004 0723     		movs	r3, #7
 599 0006 0360     		str	r3, [r0]
 600 0008 FFF7FEFF 		bl	FLASH_OB_GetWRP
 601 000c A060     		str	r0, [r4, #8]
 602 000e FFF7FEFF 		bl	FLASH_OB_GetRDP
 603 0012 2074     		strb	r0, [r4, #16]
 604 0014 FFF7FEFF 		bl	FLASH_OB_GetUser
 605 0018 6074     		strb	r0, [r4, #17]
 606 001a 10BD     		pop	{r4, pc}
 608              		.section	.text.HAL_FLASHEx_OBGetUserData,"ax",%progbits
 609              		.align	1
 610              		.global	HAL_FLASHEx_OBGetUserData
 611              		.syntax unified
 612              		.thumb
 613              		.thumb_func
 614              		.fpu softvfp
 616              	HAL_FLASHEx_OBGetUserData:
 617              		@ args = 0, pretend = 0, frame = 0
 618              		@ frame_needed = 0, uses_anonymous_args = 0
 619              		@ link register save eliminated.
 620 0000 064B     		ldr	r3, .L93
 621 0002 9842     		cmp	r0, r3
 622 0004 04D0     		beq	.L92
 623 0006 064B     		ldr	r3, .L93+4
 624 0008 D869     		ldr	r0, [r3, #28]
 625 000a C0F38740 		ubfx	r0, r0, #18, #8
 626 000e 7047     		bx	lr
 627              	.L92:
 628 0010 034B     		ldr	r3, .L93+4
 629 0012 D869     		ldr	r0, [r3, #28]
 630 0014 C0F38720 		ubfx	r0, r0, #10, #8
 631 0018 7047     		bx	lr
 632              	.L94:
 633 001a 00BF     		.align	2
 634              	.L93:
 635 001c 04F8FF1F 		.word	536868868
 636 0020 00200240 		.word	1073881088
 638              		.section	.text.FLASH_PageErase,"ax",%progbits
 639              		.align	1
 640              		.global	FLASH_PageErase
 641              		.syntax unified
 642              		.thumb
 643              		.thumb_func
 644              		.fpu softvfp
 646              	FLASH_PageErase:
 647              		@ args = 0, pretend = 0, frame = 0
 648              		@ frame_needed = 0, uses_anonymous_args = 0
 649              		@ link register save eliminated.
 650 0000 064B     		ldr	r3, .L96
 651 0002 0022     		movs	r2, #0
 652 0004 DA61     		str	r2, [r3, #28]
 653 0006 064B     		ldr	r3, .L96+4
 654 0008 1A69     		ldr	r2, [r3, #16]
ARM GAS  /tmp/ccV3RwjH.s 			page 12


 655 000a 42F00202 		orr	r2, r2, #2
 656 000e 1A61     		str	r2, [r3, #16]
 657 0010 5861     		str	r0, [r3, #20]
 658 0012 1A69     		ldr	r2, [r3, #16]
 659 0014 42F04002 		orr	r2, r2, #64
 660 0018 1A61     		str	r2, [r3, #16]
 661 001a 7047     		bx	lr
 662              	.L97:
 663              		.align	2
 664              	.L96:
 665 001c 00000000 		.word	pFlash
 666 0020 00200240 		.word	1073881088
 668              		.section	.text.HAL_FLASHEx_Erase,"ax",%progbits
 669              		.align	1
 670              		.global	HAL_FLASHEx_Erase
 671              		.syntax unified
 672              		.thumb
 673              		.thumb_func
 674              		.fpu softvfp
 676              	HAL_FLASHEx_Erase:
 677              		@ args = 0, pretend = 0, frame = 0
 678              		@ frame_needed = 0, uses_anonymous_args = 0
 679 0000 264B     		ldr	r3, .L115
 680 0002 1B7E     		ldrb	r3, [r3, #24]	@ zero_extendqisi2
 681 0004 012B     		cmp	r3, #1
 682 0006 46D0     		beq	.L105
 683 0008 70B5     		push	{r4, r5, r6, lr}
 684 000a 0546     		mov	r5, r0
 685 000c 0E46     		mov	r6, r1
 686 000e 234B     		ldr	r3, .L115
 687 0010 0122     		movs	r2, #1
 688 0012 1A76     		strb	r2, [r3, #24]
 689 0014 0368     		ldr	r3, [r0]
 690 0016 022B     		cmp	r3, #2
 691 0018 20D0     		beq	.L112
 692 001a 4CF25030 		movw	r0, #50000
 693 001e FFF7FEFF 		bl	FLASH_WaitForLastOperation
 694 0022 90BB     		cbnz	r0, .L107
 695 0024 4FF0FF33 		mov	r3, #-1
 696 0028 3360     		str	r3, [r6]
 697 002a AC68     		ldr	r4, [r5, #8]
 698 002c 0121     		movs	r1, #1
 699              	.L102:
 700 002e EA68     		ldr	r2, [r5, #12]
 701 0030 AB68     		ldr	r3, [r5, #8]
 702 0032 03EB8223 		add	r3, r3, r2, lsl #10
 703 0036 A342     		cmp	r3, r4
 704 0038 28D9     		bls	.L101
 705 003a 2046     		mov	r0, r4
 706 003c FFF7FEFF 		bl	FLASH_PageErase
 707 0040 4CF25030 		movw	r0, #50000
 708 0044 FFF7FEFF 		bl	FLASH_WaitForLastOperation
 709 0048 154A     		ldr	r2, .L115+4
 710 004a 1369     		ldr	r3, [r2, #16]
 711 004c 23F00203 		bic	r3, r3, #2
 712 0050 1361     		str	r3, [r2, #16]
 713 0052 0146     		mov	r1, r0
ARM GAS  /tmp/ccV3RwjH.s 			page 13


 714 0054 B8B9     		cbnz	r0, .L113
 715 0056 04F58064 		add	r4, r4, #1024
 716 005a E8E7     		b	.L102
 717              	.L112:
 718 005c 4CF25030 		movw	r0, #50000
 719 0060 FFF7FEFF 		bl	FLASH_WaitForLastOperation
 720 0064 08B1     		cbz	r0, .L114
 721 0066 0121     		movs	r1, #1
 722 0068 10E0     		b	.L101
 723              	.L114:
 724 006a 0120     		movs	r0, #1
 725 006c FFF7FEFF 		bl	FLASH_MassErase
 726 0070 4CF25030 		movw	r0, #50000
 727 0074 FFF7FEFF 		bl	FLASH_WaitForLastOperation
 728 0078 0146     		mov	r1, r0
 729 007a 094A     		ldr	r2, .L115+4
 730 007c 1369     		ldr	r3, [r2, #16]
 731 007e 23F00403 		bic	r3, r3, #4
 732 0082 1361     		str	r3, [r2, #16]
 733 0084 02E0     		b	.L101
 734              	.L113:
 735 0086 3460     		str	r4, [r6]
 736 0088 00E0     		b	.L101
 737              	.L107:
 738 008a 0121     		movs	r1, #1
 739              	.L101:
 740 008c 034B     		ldr	r3, .L115
 741 008e 0022     		movs	r2, #0
 742 0090 1A76     		strb	r2, [r3, #24]
 743 0092 0846     		mov	r0, r1
 744 0094 70BD     		pop	{r4, r5, r6, pc}
 745              	.L105:
 746 0096 0221     		movs	r1, #2
 747 0098 0846     		mov	r0, r1
 748 009a 7047     		bx	lr
 749              	.L116:
 750              		.align	2
 751              	.L115:
 752 009c 00000000 		.word	pFlash
 753 00a0 00200240 		.word	1073881088
 755              		.section	.text.HAL_FLASHEx_Erase_IT,"ax",%progbits
 756              		.align	1
 757              		.global	HAL_FLASHEx_Erase_IT
 758              		.syntax unified
 759              		.thumb
 760              		.thumb_func
 761              		.fpu softvfp
 763              	HAL_FLASHEx_Erase_IT:
 764              		@ args = 0, pretend = 0, frame = 0
 765              		@ frame_needed = 0, uses_anonymous_args = 0
 766 0000 10B5     		push	{r4, lr}
 767 0002 154B     		ldr	r3, .L124
 768 0004 1B7E     		ldrb	r3, [r3, #24]	@ zero_extendqisi2
 769 0006 012B     		cmp	r3, #1
 770 0008 21D0     		beq	.L120
 771 000a 134B     		ldr	r3, .L124
 772 000c 0122     		movs	r2, #1
ARM GAS  /tmp/ccV3RwjH.s 			page 14


 773 000e 1A76     		strb	r2, [r3, #24]
 774 0010 1B78     		ldrb	r3, [r3]	@ zero_extendqisi2
 775 0012 03F0FF04 		and	r4, r3, #255
 776 0016 E3B9     		cbnz	r3, .L121
 777 0018 104A     		ldr	r2, .L124+4
 778 001a 1369     		ldr	r3, [r2, #16]
 779 001c 43F4A053 		orr	r3, r3, #5120
 780 0020 1361     		str	r3, [r2, #16]
 781 0022 0368     		ldr	r3, [r0]
 782 0024 022B     		cmp	r3, #2
 783 0026 0BD0     		beq	.L123
 784 0028 0B4B     		ldr	r3, .L124
 785 002a 0122     		movs	r2, #1
 786 002c 1A70     		strb	r2, [r3]
 787 002e C268     		ldr	r2, [r0, #12]
 788 0030 5A60     		str	r2, [r3, #4]
 789 0032 8268     		ldr	r2, [r0, #8]
 790 0034 9A60     		str	r2, [r3, #8]
 791 0036 8068     		ldr	r0, [r0, #8]
 792 0038 FFF7FEFF 		bl	FLASH_PageErase
 793              	.L118:
 794 003c 2046     		mov	r0, r4
 795 003e 10BD     		pop	{r4, pc}
 796              	.L123:
 797 0040 054B     		ldr	r3, .L124
 798 0042 0222     		movs	r2, #2
 799 0044 1A70     		strb	r2, [r3]
 800 0046 4068     		ldr	r0, [r0, #4]
 801 0048 FFF7FEFF 		bl	FLASH_MassErase
 802 004c F6E7     		b	.L118
 803              	.L120:
 804 004e 0224     		movs	r4, #2
 805 0050 F4E7     		b	.L118
 806              	.L121:
 807 0052 0124     		movs	r4, #1
 808 0054 F2E7     		b	.L118
 809              	.L125:
 810 0056 00BF     		.align	2
 811              	.L124:
 812 0058 00000000 		.word	pFlash
 813 005c 00200240 		.word	1073881088
 815              		.ident	"GCC: (15:9-2019-q4-0ubuntu1) 9.2.1 20191025 (release) [ARM/arm-9-branch revision 277599]"
ARM GAS  /tmp/ccV3RwjH.s 			page 15

