ARM GAS  /tmp/ccEsarEx.s 			page 1


   1              		.cpu cortex-m3
   2              		.eabi_attribute 20, 1
   3              		.eabi_attribute 21, 1
   4              		.eabi_attribute 23, 3
   5              		.eabi_attribute 24, 1
   6              		.eabi_attribute 25, 1
   7              		.eabi_attribute 26, 1
   8              		.eabi_attribute 30, 2
   9              		.eabi_attribute 34, 1
  10              		.eabi_attribute 18, 4
  11              		.file	"stm32f1xx_hal_flash.c"
  12              		.text
  13              		.section	.text.HAL_FLASH_Program,"ax",%progbits
  14              		.align	1
  15              		.p2align 2,,3
  16              		.global	HAL_FLASH_Program
  17              		.arch armv7-m
  18              		.syntax unified
  19              		.thumb
  20              		.thumb_func
  21              		.fpu softvfp
  23              	HAL_FLASH_Program:
  24              		@ args = 0, pretend = 0, frame = 0
  25              		@ frame_needed = 0, uses_anonymous_args = 0
  26 0000 2DE9F84F 		push	{r3, r4, r5, r6, r7, r8, r9, r10, fp, lr}
  27 0004 6B4E     		ldr	r6, .L52
  28 0006 8046     		mov	r8, r0
  29 0008 307E     		ldrb	r0, [r6, #24]	@ zero_extendqisi2
  30 000a 0128     		cmp	r0, #1
  31 000c 00F0C780 		beq	.L23
  32 0010 1F46     		mov	r7, r3
  33 0012 0123     		movs	r3, #1
  34 0014 0D46     		mov	r5, r1
  35 0016 9146     		mov	r9, r2
  36 0018 3376     		strb	r3, [r6, #24]
  37 001a FFF7FEFF 		bl	HAL_GetTick
  38 001e 4CF2503B 		movw	fp, #50000
  39 0022 0446     		mov	r4, r0
  40 0024 DFF890A1 		ldr	r10, .L52+4
  41 0028 05E0     		b	.L3
  42              	.L5:
  43 002a FFF7FEFF 		bl	HAL_GetTick
  44 002e 001B     		subs	r0, r0, r4
  45 0030 5845     		cmp	r0, fp
  46 0032 00F2B280 		bhi	.L24
  47              	.L3:
  48 0036 DAF80C30 		ldr	r3, [r10, #12]
  49 003a DB07     		lsls	r3, r3, #31
  50 003c F5D4     		bmi	.L5
  51 003e DAF80C30 		ldr	r3, [r10, #12]
  52 0042 9806     		lsls	r0, r3, #26
  53 0044 44BF     		itt	mi
  54 0046 2023     		movmi	r3, #32
  55 0048 CAF80C30 		strmi	r3, [r10, #12]
  56 004c 5A4B     		ldr	r3, .L52+4
  57 004e DA68     		ldr	r2, [r3, #12]
  58 0050 D106     		lsls	r1, r2, #27
ARM GAS  /tmp/ccEsarEx.s 			page 2


  59 0052 53D4     		bmi	.L7
  60 0054 DA69     		ldr	r2, [r3, #28]
  61 0056 D207     		lsls	r2, r2, #31
  62 0058 50D4     		bmi	.L7
  63 005a DB68     		ldr	r3, [r3, #12]
  64 005c 13F0040A 		ands	r10, r3, #4
  65 0060 4CD1     		bne	.L7
  66 0062 B8F1010F 		cmp	r8, #1
  67 0066 06D0     		beq	.L8
  68 0068 B8F1020F 		cmp	r8, #2
  69 006c 0CBF     		ite	eq
  70 006e 4FF00208 		moveq	r8, #2
  71 0072 4FF00408 		movne	r8, #4
  72              	.L8:
  73 0076 504C     		ldr	r4, .L52+4
  74 0078 05EB4808 		add	r8, r5, r8, lsl #1
  75              	.L22:
  76 007c 0022     		movs	r2, #0
  77 007e CAF1200C 		rsb	ip, r10, #32
  78 0082 F261     		str	r2, [r6, #28]
  79 0084 07FA0CFC 		lsl	ip, r7, ip
  80 0088 29FA0AF0 		lsr	r0, r9, r10
  81 008c AAF12001 		sub	r1, r10, #32
  82 0090 2269     		ldr	r2, [r4, #16]
  83 0092 40EA0C00 		orr	r0, r0, ip
  84 0096 27FA01F1 		lsr	r1, r7, r1
  85 009a 0843     		orrs	r0, r0, r1
  86 009c 42F00102 		orr	r2, r2, #1
  87 00a0 80B2     		uxth	r0, r0
  88 00a2 2261     		str	r2, [r4, #16]
  89 00a4 2880     		strh	r0, [r5]	@ movhi
  90 00a6 FFF7FEFF 		bl	HAL_GetTick
  91 00aa 8346     		mov	fp, r0
  92 00ac 07E0     		b	.L13
  93              	.L15:
  94 00ae FFF7FEFF 		bl	HAL_GetTick
  95 00b2 4CF25033 		movw	r3, #50000
  96 00b6 A0EB0B00 		sub	r0, r0, fp
  97 00ba 9842     		cmp	r0, r3
  98 00bc 65D8     		bhi	.L14
  99              	.L13:
 100 00be E268     		ldr	r2, [r4, #12]
 101 00c0 D007     		lsls	r0, r2, #31
 102 00c2 F4D4     		bmi	.L15
 103 00c4 E268     		ldr	r2, [r4, #12]
 104 00c6 9106     		lsls	r1, r2, #26
 105 00c8 44BF     		itt	mi
 106 00ca 2022     		movmi	r2, #32
 107 00cc E260     		strmi	r2, [r4, #12]
 108 00ce E268     		ldr	r2, [r4, #12]
 109 00d0 D206     		lsls	r2, r2, #27
 110 00d2 32D4     		bmi	.L17
 111 00d4 E269     		ldr	r2, [r4, #28]
 112 00d6 D307     		lsls	r3, r2, #31
 113 00d8 2FD4     		bmi	.L17
 114 00da E068     		ldr	r0, [r4, #12]
 115 00dc 10F00400 		ands	r0, r0, #4
ARM GAS  /tmp/ccEsarEx.s 			page 3


 116 00e0 2BD1     		bne	.L17
 117 00e2 2269     		ldr	r2, [r4, #16]
 118 00e4 0235     		adds	r5, r5, #2
 119 00e6 22F00102 		bic	r2, r2, #1
 120 00ea 4545     		cmp	r5, r8
 121 00ec 0AF1100A 		add	r10, r10, #16
 122 00f0 2261     		str	r2, [r4, #16]
 123 00f2 C3D1     		bne	.L22
 124              	.L4:
 125 00f4 0023     		movs	r3, #0
 126 00f6 3376     		strb	r3, [r6, #24]
 127 00f8 BDE8F88F 		pop	{r3, r4, r5, r6, r7, r8, r9, r10, fp, pc}
 128              	.L7:
 129 00fc 2E4B     		ldr	r3, .L52+4
 130 00fe DB68     		ldr	r3, [r3, #12]
 131 0100 13F01003 		ands	r3, r3, #16
 132 0104 4ED1     		bne	.L51
 133 0106 0421     		movs	r1, #4
 134              	.L10:
 135 0108 2B4A     		ldr	r2, .L52+4
 136 010a D268     		ldr	r2, [r2, #12]
 137 010c 5507     		lsls	r5, r2, #29
 138 010e 04D5     		bpl	.L11
 139 0110 0B46     		mov	r3, r1
 140 0112 F269     		ldr	r2, [r6, #28]
 141 0114 42F00102 		orr	r2, r2, #1
 142 0118 F261     		str	r2, [r6, #28]
 143              	.L11:
 144 011a 274A     		ldr	r2, .L52+4
 145 011c D169     		ldr	r1, [r2, #28]
 146 011e CC07     		lsls	r4, r1, #31
 147 0120 07D5     		bpl	.L12
 148 0122 F169     		ldr	r1, [r6, #28]
 149 0124 41F00401 		orr	r1, r1, #4
 150 0128 F161     		str	r1, [r6, #28]
 151 012a D169     		ldr	r1, [r2, #28]
 152 012c 21F00101 		bic	r1, r1, #1
 153 0130 D161     		str	r1, [r2, #28]
 154              	.L12:
 155 0132 214A     		ldr	r2, .L52+4
 156 0134 0120     		movs	r0, #1
 157 0136 D360     		str	r3, [r2, #12]
 158 0138 DCE7     		b	.L4
 159              	.L17:
 160 013a 1F4B     		ldr	r3, .L52+4
 161 013c DB68     		ldr	r3, [r3, #12]
 162 013e 13F01003 		ands	r3, r3, #16
 163 0142 28D0     		beq	.L28
 164 0144 F369     		ldr	r3, [r6, #28]
 165 0146 1421     		movs	r1, #20
 166 0148 43F00203 		orr	r3, r3, #2
 167 014c F361     		str	r3, [r6, #28]
 168 014e 1023     		movs	r3, #16
 169              	.L19:
 170 0150 194A     		ldr	r2, .L52+4
 171 0152 D268     		ldr	r2, [r2, #12]
 172 0154 5007     		lsls	r0, r2, #29
ARM GAS  /tmp/ccEsarEx.s 			page 4


 173 0156 04D5     		bpl	.L20
 174 0158 0B46     		mov	r3, r1
 175 015a F269     		ldr	r2, [r6, #28]
 176 015c 42F00102 		orr	r2, r2, #1
 177 0160 F261     		str	r2, [r6, #28]
 178              	.L20:
 179 0162 154A     		ldr	r2, .L52+4
 180 0164 D169     		ldr	r1, [r2, #28]
 181 0166 C907     		lsls	r1, r1, #31
 182 0168 07D5     		bpl	.L21
 183 016a F169     		ldr	r1, [r6, #28]
 184 016c 41F00401 		orr	r1, r1, #4
 185 0170 F161     		str	r1, [r6, #28]
 186 0172 D169     		ldr	r1, [r2, #28]
 187 0174 21F00101 		bic	r1, r1, #1
 188 0178 D161     		str	r1, [r2, #28]
 189              	.L21:
 190 017a 0F4A     		ldr	r2, .L52+4
 191 017c 0120     		movs	r0, #1
 192 017e D360     		str	r3, [r2, #12]
 193 0180 1369     		ldr	r3, [r2, #16]
 194 0182 23F00103 		bic	r3, r3, #1
 195 0186 1361     		str	r3, [r2, #16]
 196 0188 B4E7     		b	.L4
 197              	.L14:
 198 018a 2369     		ldr	r3, [r4, #16]
 199 018c 0320     		movs	r0, #3
 200 018e 23F00103 		bic	r3, r3, #1
 201 0192 2361     		str	r3, [r4, #16]
 202 0194 AEE7     		b	.L4
 203              	.L28:
 204 0196 0421     		movs	r1, #4
 205 0198 DAE7     		b	.L19
 206              	.L24:
 207 019a 0320     		movs	r0, #3
 208 019c AAE7     		b	.L4
 209              	.L23:
 210 019e 0220     		movs	r0, #2
 211 01a0 BDE8F88F 		pop	{r3, r4, r5, r6, r7, r8, r9, r10, fp, pc}
 212              	.L51:
 213 01a4 F369     		ldr	r3, [r6, #28]
 214 01a6 1421     		movs	r1, #20
 215 01a8 43F00203 		orr	r3, r3, #2
 216 01ac F361     		str	r3, [r6, #28]
 217 01ae 1023     		movs	r3, #16
 218 01b0 AAE7     		b	.L10
 219              	.L53:
 220 01b2 00BF     		.align	2
 221              	.L52:
 222 01b4 00000000 		.word	pFlash
 223 01b8 00200240 		.word	1073881088
 225              		.section	.text.HAL_FLASH_Program_IT,"ax",%progbits
 226              		.align	1
 227              		.p2align 2,,3
 228              		.global	HAL_FLASH_Program_IT
 229              		.syntax unified
 230              		.thumb
ARM GAS  /tmp/ccEsarEx.s 			page 5


 231              		.thumb_func
 232              		.fpu softvfp
 234              	HAL_FLASH_Program_IT:
 235              		@ args = 0, pretend = 0, frame = 0
 236              		@ frame_needed = 0, uses_anonymous_args = 0
 237              		@ link register save eliminated.
 238 0000 2DE97008 		push	{r4, r5, r6, fp}
 239 0004 9346     		mov	fp, r2
 240 0006 184A     		ldr	r2, .L63
 241 0008 167E     		ldrb	r6, [r2, #24]	@ zero_extendqisi2
 242 000a 012E     		cmp	r6, #1
 243 000c 27D0     		beq	.L59
 244 000e 9C46     		mov	ip, r3
 245 0010 0123     		movs	r3, #1
 246 0012 164E     		ldr	r6, .L63+4
 247 0014 1376     		strb	r3, [r2, #24]
 248 0016 3369     		ldr	r3, [r6, #16]
 249 0018 0128     		cmp	r0, #1
 250 001a 43F4A053 		orr	r3, r3, #5120
 251 001e 3361     		str	r3, [r6, #16]
 252 0020 9160     		str	r1, [r2, #8]
 253 0022 C2E904BC 		strd	fp, [r2, #16]
 254 0026 12D0     		beq	.L61
 255 0028 0228     		cmp	r0, #2
 256 002a 14D0     		beq	.L62
 257 002c 0520     		movs	r0, #5
 258 002e 0423     		movs	r3, #4
 259 0030 1070     		strb	r0, [r2]
 260 0032 5360     		str	r3, [r2, #4]
 261              	.L57:
 262 0034 0020     		movs	r0, #0
 263 0036 0D4D     		ldr	r5, .L63+4
 264 0038 D061     		str	r0, [r2, #28]
 265 003a 2B69     		ldr	r3, [r5, #16]
 266 003c 1FFA8BF4 		uxth	r4, fp
 267 0040 43F00103 		orr	r3, r3, #1
 268 0044 2B61     		str	r3, [r5, #16]
 269 0046 0C80     		strh	r4, [r1]	@ movhi
 270 0048 BDE87008 		pop	{r4, r5, r6, fp}
 271 004c 7047     		bx	lr
 272              	.L61:
 273 004e 0323     		movs	r3, #3
 274 0050 1370     		strb	r3, [r2]
 275 0052 5060     		str	r0, [r2, #4]
 276 0054 EEE7     		b	.L57
 277              	.L62:
 278 0056 0423     		movs	r3, #4
 279 0058 1370     		strb	r3, [r2]
 280 005a 5060     		str	r0, [r2, #4]
 281 005c EAE7     		b	.L57
 282              	.L59:
 283 005e 0220     		movs	r0, #2
 284 0060 BDE87008 		pop	{r4, r5, r6, fp}
 285 0064 7047     		bx	lr
 286              	.L64:
 287 0066 00BF     		.align	2
 288              	.L63:
ARM GAS  /tmp/ccEsarEx.s 			page 6


 289 0068 00000000 		.word	pFlash
 290 006c 00200240 		.word	1073881088
 292              		.section	.text.HAL_FLASH_EndOfOperationCallback,"ax",%progbits
 293              		.align	1
 294              		.p2align 2,,3
 295              		.weak	HAL_FLASH_EndOfOperationCallback
 296              		.syntax unified
 297              		.thumb
 298              		.thumb_func
 299              		.fpu softvfp
 301              	HAL_FLASH_EndOfOperationCallback:
 302              		@ args = 0, pretend = 0, frame = 0
 303              		@ frame_needed = 0, uses_anonymous_args = 0
 304              		@ link register save eliminated.
 305 0000 7047     		bx	lr
 307 0002 00BF     		.section	.text.HAL_FLASH_OperationErrorCallback,"ax",%progbits
 308              		.align	1
 309              		.p2align 2,,3
 310              		.weak	HAL_FLASH_OperationErrorCallback
 311              		.syntax unified
 312              		.thumb
 313              		.thumb_func
 314              		.fpu softvfp
 316              	HAL_FLASH_OperationErrorCallback:
 317              		@ args = 0, pretend = 0, frame = 0
 318              		@ frame_needed = 0, uses_anonymous_args = 0
 319              		@ link register save eliminated.
 320 0000 7047     		bx	lr
 322 0002 00BF     		.section	.text.HAL_FLASH_IRQHandler,"ax",%progbits
 323              		.align	1
 324              		.p2align 2,,3
 325              		.global	HAL_FLASH_IRQHandler
 326              		.syntax unified
 327              		.thumb
 328              		.thumb_func
 329              		.fpu softvfp
 331              	HAL_FLASH_IRQHandler:
 332              		@ args = 0, pretend = 0, frame = 0
 333              		@ frame_needed = 0, uses_anonymous_args = 0
 334 0000 F8B5     		push	{r3, r4, r5, r6, r7, lr}
 335 0002 564B     		ldr	r3, .L101
 336 0004 DA68     		ldr	r2, [r3, #12]
 337 0006 D706     		lsls	r7, r2, #27
 338 0008 41D4     		bmi	.L68
 339 000a DB68     		ldr	r3, [r3, #12]
 340 000c 5E07     		lsls	r6, r3, #29
 341 000e 3ED4     		bmi	.L68
 342 0010 534C     		ldr	r4, .L101+4
 343              	.L69:
 344 0012 524D     		ldr	r5, .L101
 345 0014 EB68     		ldr	r3, [r5, #12]
 346 0016 9B06     		lsls	r3, r3, #26
 347 0018 2AD5     		bpl	.L74
 348 001a 2023     		movs	r3, #32
 349 001c EB60     		str	r3, [r5, #12]
 350 001e 2378     		ldrb	r3, [r4]	@ zero_extendqisi2
 351 0020 33B3     		cbz	r3, .L74
ARM GAS  /tmp/ccEsarEx.s 			page 7


 352 0022 2378     		ldrb	r3, [r4]	@ zero_extendqisi2
 353 0024 012B     		cmp	r3, #1
 354 0026 60D0     		beq	.L97
 355 0028 2378     		ldrb	r3, [r4]	@ zero_extendqisi2
 356 002a 022B     		cmp	r3, #2
 357 002c 00F08880 		beq	.L98
 358 0030 6368     		ldr	r3, [r4, #4]
 359 0032 013B     		subs	r3, r3, #1
 360 0034 6360     		str	r3, [r4, #4]
 361 0036 6368     		ldr	r3, [r4, #4]
 362 0038 002B     		cmp	r3, #0
 363 003a 69D0     		beq	.L79
 364 003c 0027     		movs	r7, #0
 365 003e A168     		ldr	r1, [r4, #8]
 366 0040 0231     		adds	r1, r1, #2
 367 0042 A160     		str	r1, [r4, #8]
 368 0044 A668     		ldr	r6, [r4, #8]
 369 0046 D4E90401 		ldrd	r0, [r4, #16]
 370 004a 020C     		lsrs	r2, r0, #16
 371 004c 0B0C     		lsrs	r3, r1, #16
 372 004e 42EA0142 		orr	r2, r2, r1, lsl #16
 373 0052 C4E90423 		strd	r2, [r4, #16]
 374 0056 2B69     		ldr	r3, [r5, #16]
 375 0058 23F00103 		bic	r3, r3, #1
 376 005c 2B61     		str	r3, [r5, #16]
 377 005e D4E90412 		ldrd	r1, [r4, #16]
 378 0062 E761     		str	r7, [r4, #28]
 379 0064 2B69     		ldr	r3, [r5, #16]
 380 0066 8AB2     		uxth	r2, r1
 381 0068 43F00103 		orr	r3, r3, #1
 382 006c 2B61     		str	r3, [r5, #16]
 383 006e 3280     		strh	r2, [r6]	@ movhi
 384              	.L74:
 385 0070 2378     		ldrb	r3, [r4]	@ zero_extendqisi2
 386 0072 03F0FF01 		and	r1, r3, #255
 387 0076 4BB9     		cbnz	r3, .L67
 388 0078 384B     		ldr	r3, .L101
 389 007a 1A69     		ldr	r2, [r3, #16]
 390 007c 22F00702 		bic	r2, r2, #7
 391 0080 1A61     		str	r2, [r3, #16]
 392 0082 1A69     		ldr	r2, [r3, #16]
 393 0084 22F4A052 		bic	r2, r2, #5120
 394 0088 1A61     		str	r2, [r3, #16]
 395 008a 2176     		strb	r1, [r4, #24]
 396              	.L67:
 397 008c F8BD     		pop	{r3, r4, r5, r6, r7, pc}
 398              	.L68:
 399 008e 4FF0FF32 		mov	r2, #-1
 400 0092 334C     		ldr	r4, .L101+4
 401 0094 314B     		ldr	r3, .L101
 402 0096 A068     		ldr	r0, [r4, #8]
 403 0098 A260     		str	r2, [r4, #8]
 404 009a DB68     		ldr	r3, [r3, #12]
 405 009c 13F01003 		ands	r3, r3, #16
 406 00a0 1CD1     		bne	.L99
 407 00a2 0421     		movs	r1, #4
 408              	.L70:
ARM GAS  /tmp/ccEsarEx.s 			page 8


 409 00a4 2D4A     		ldr	r2, .L101
 410 00a6 D268     		ldr	r2, [r2, #12]
 411 00a8 5507     		lsls	r5, r2, #29
 412 00aa 04D5     		bpl	.L71
 413 00ac 0B46     		mov	r3, r1
 414 00ae E269     		ldr	r2, [r4, #28]
 415 00b0 42F00102 		orr	r2, r2, #1
 416 00b4 E261     		str	r2, [r4, #28]
 417              	.L71:
 418 00b6 294A     		ldr	r2, .L101
 419 00b8 D169     		ldr	r1, [r2, #28]
 420 00ba C907     		lsls	r1, r1, #31
 421 00bc 07D5     		bpl	.L72
 422 00be E169     		ldr	r1, [r4, #28]
 423 00c0 41F00401 		orr	r1, r1, #4
 424 00c4 E161     		str	r1, [r4, #28]
 425 00c6 D169     		ldr	r1, [r2, #28]
 426 00c8 21F00101 		bic	r1, r1, #1
 427 00cc D161     		str	r1, [r2, #28]
 428              	.L72:
 429 00ce 234A     		ldr	r2, .L101
 430 00d0 D360     		str	r3, [r2, #12]
 431 00d2 FFF7FEFF 		bl	HAL_FLASH_OperationErrorCallback
 432 00d6 0023     		movs	r3, #0
 433 00d8 2370     		strb	r3, [r4]
 434 00da 9AE7     		b	.L69
 435              	.L99:
 436 00dc E369     		ldr	r3, [r4, #28]
 437 00de 1421     		movs	r1, #20
 438 00e0 43F00203 		orr	r3, r3, #2
 439 00e4 E361     		str	r3, [r4, #28]
 440 00e6 1023     		movs	r3, #16
 441 00e8 DCE7     		b	.L70
 442              	.L97:
 443 00ea 6368     		ldr	r3, [r4, #4]
 444 00ec 013B     		subs	r3, r3, #1
 445 00ee 6360     		str	r3, [r4, #4]
 446 00f0 6368     		ldr	r3, [r4, #4]
 447 00f2 F3B1     		cbz	r3, .L77
 448 00f4 A068     		ldr	r0, [r4, #8]
 449 00f6 FFF7FEFF 		bl	HAL_FLASH_EndOfOperationCallback
 450 00fa A068     		ldr	r0, [r4, #8]
 451 00fc 00F58060 		add	r0, r0, #1024
 452 0100 A060     		str	r0, [r4, #8]
 453 0102 2B69     		ldr	r3, [r5, #16]
 454 0104 23F00203 		bic	r3, r3, #2
 455 0108 2B61     		str	r3, [r5, #16]
 456 010a FFF7FEFF 		bl	FLASH_PageErase
 457 010e AFE7     		b	.L74
 458              	.L79:
 459 0110 2378     		ldrb	r3, [r4]	@ zero_extendqisi2
 460 0112 032B     		cmp	r3, #3
 461 0114 1ED0     		beq	.L100
 462 0116 2378     		ldrb	r3, [r4]	@ zero_extendqisi2
 463 0118 A068     		ldr	r0, [r4, #8]
 464 011a 042B     		cmp	r3, #4
 465 011c 0CBF     		ite	eq
ARM GAS  /tmp/ccEsarEx.s 			page 9


 466 011e 0238     		subeq	r0, r0, #2
 467 0120 0638     		subne	r0, r0, #6
 468 0122 FFF7FEFF 		bl	HAL_FLASH_EndOfOperationCallback
 469              	.L81:
 470 0126 4FF0FF32 		mov	r2, #-1
 471 012a 0023     		movs	r3, #0
 472 012c A260     		str	r2, [r4, #8]
 473 012e 2370     		strb	r3, [r4]
 474 0130 9EE7     		b	.L74
 475              	.L77:
 476 0132 4FF0FF30 		mov	r0, #-1
 477 0136 A060     		str	r0, [r4, #8]
 478 0138 2370     		strb	r3, [r4]
 479 013a FFF7FEFF 		bl	HAL_FLASH_EndOfOperationCallback
 480 013e 97E7     		b	.L74
 481              	.L98:
 482 0140 2B69     		ldr	r3, [r5, #16]
 483 0142 0020     		movs	r0, #0
 484 0144 23F00403 		bic	r3, r3, #4
 485 0148 2B61     		str	r3, [r5, #16]
 486 014a FFF7FEFF 		bl	HAL_FLASH_EndOfOperationCallback
 487 014e 0023     		movs	r3, #0
 488 0150 2370     		strb	r3, [r4]
 489 0152 8DE7     		b	.L74
 490              	.L100:
 491 0154 A068     		ldr	r0, [r4, #8]
 492 0156 FFF7FEFF 		bl	HAL_FLASH_EndOfOperationCallback
 493 015a E4E7     		b	.L81
 494              	.L102:
 495              		.align	2
 496              	.L101:
 497 015c 00200240 		.word	1073881088
 498 0160 00000000 		.word	pFlash
 500              		.section	.text.HAL_FLASH_Unlock,"ax",%progbits
 501              		.align	1
 502              		.p2align 2,,3
 503              		.global	HAL_FLASH_Unlock
 504              		.syntax unified
 505              		.thumb
 506              		.thumb_func
 507              		.fpu softvfp
 509              	HAL_FLASH_Unlock:
 510              		@ args = 0, pretend = 0, frame = 0
 511              		@ frame_needed = 0, uses_anonymous_args = 0
 512              		@ link register save eliminated.
 513 0000 064B     		ldr	r3, .L106
 514 0002 1869     		ldr	r0, [r3, #16]
 515 0004 10F08000 		ands	r0, r0, #128
 516 0008 06D0     		beq	.L104
 517 000a 0549     		ldr	r1, .L106+4
 518 000c 054A     		ldr	r2, .L106+8
 519 000e 5960     		str	r1, [r3, #4]
 520 0010 5A60     		str	r2, [r3, #4]
 521 0012 1869     		ldr	r0, [r3, #16]
 522 0014 C0F3C010 		ubfx	r0, r0, #7, #1
 523              	.L104:
 524 0018 7047     		bx	lr
ARM GAS  /tmp/ccEsarEx.s 			page 10


 525              	.L107:
 526 001a 00BF     		.align	2
 527              	.L106:
 528 001c 00200240 		.word	1073881088
 529 0020 23016745 		.word	1164378403
 530 0024 AB89EFCD 		.word	-839939669
 532              		.section	.text.HAL_FLASH_Lock,"ax",%progbits
 533              		.align	1
 534              		.p2align 2,,3
 535              		.global	HAL_FLASH_Lock
 536              		.syntax unified
 537              		.thumb
 538              		.thumb_func
 539              		.fpu softvfp
 541              	HAL_FLASH_Lock:
 542              		@ args = 0, pretend = 0, frame = 0
 543              		@ frame_needed = 0, uses_anonymous_args = 0
 544              		@ link register save eliminated.
 545 0000 034A     		ldr	r2, .L109
 546 0002 0020     		movs	r0, #0
 547 0004 1369     		ldr	r3, [r2, #16]
 548 0006 43F08003 		orr	r3, r3, #128
 549 000a 1361     		str	r3, [r2, #16]
 550 000c 7047     		bx	lr
 551              	.L110:
 552 000e 00BF     		.align	2
 553              	.L109:
 554 0010 00200240 		.word	1073881088
 556              		.section	.text.HAL_FLASH_OB_Unlock,"ax",%progbits
 557              		.align	1
 558              		.p2align 2,,3
 559              		.global	HAL_FLASH_OB_Unlock
 560              		.syntax unified
 561              		.thumb
 562              		.thumb_func
 563              		.fpu softvfp
 565              	HAL_FLASH_OB_Unlock:
 566              		@ args = 0, pretend = 0, frame = 0
 567              		@ frame_needed = 0, uses_anonymous_args = 0
 568              		@ link register save eliminated.
 569 0000 054B     		ldr	r3, .L114
 570 0002 1869     		ldr	r0, [r3, #16]
 571 0004 10F40070 		ands	r0, r0, #512
 572 0008 04D1     		bne	.L113
 573 000a 0449     		ldr	r1, .L114+4
 574 000c 044A     		ldr	r2, .L114+8
 575 000e 9960     		str	r1, [r3, #8]
 576 0010 9A60     		str	r2, [r3, #8]
 577 0012 7047     		bx	lr
 578              	.L113:
 579 0014 0120     		movs	r0, #1
 580 0016 7047     		bx	lr
 581              	.L115:
 582              		.align	2
 583              	.L114:
 584 0018 00200240 		.word	1073881088
 585 001c 23016745 		.word	1164378403
ARM GAS  /tmp/ccEsarEx.s 			page 11


 586 0020 AB89EFCD 		.word	-839939669
 588              		.section	.text.HAL_FLASH_OB_Lock,"ax",%progbits
 589              		.align	1
 590              		.p2align 2,,3
 591              		.global	HAL_FLASH_OB_Lock
 592              		.syntax unified
 593              		.thumb
 594              		.thumb_func
 595              		.fpu softvfp
 597              	HAL_FLASH_OB_Lock:
 598              		@ args = 0, pretend = 0, frame = 0
 599              		@ frame_needed = 0, uses_anonymous_args = 0
 600              		@ link register save eliminated.
 601 0000 034A     		ldr	r2, .L117
 602 0002 0020     		movs	r0, #0
 603 0004 1369     		ldr	r3, [r2, #16]
 604 0006 23F40073 		bic	r3, r3, #512
 605 000a 1361     		str	r3, [r2, #16]
 606 000c 7047     		bx	lr
 607              	.L118:
 608 000e 00BF     		.align	2
 609              	.L117:
 610 0010 00200240 		.word	1073881088
 612              		.section	.text.HAL_FLASH_OB_Launch,"ax",%progbits
 613              		.align	1
 614              		.p2align 2,,3
 615              		.global	HAL_FLASH_OB_Launch
 616              		.syntax unified
 617              		.thumb
 618              		.thumb_func
 619              		.fpu softvfp
 621              	HAL_FLASH_OB_Launch:
 622              		@ args = 0, pretend = 0, frame = 0
 623              		@ frame_needed = 0, uses_anonymous_args = 0
 624              		@ link register save eliminated.
 625 0000 FFF7FEBF 		b	HAL_NVIC_SystemReset
 627              		.section	.text.HAL_FLASH_GetError,"ax",%progbits
 628              		.align	1
 629              		.p2align 2,,3
 630              		.global	HAL_FLASH_GetError
 631              		.syntax unified
 632              		.thumb
 633              		.thumb_func
 634              		.fpu softvfp
 636              	HAL_FLASH_GetError:
 637              		@ args = 0, pretend = 0, frame = 0
 638              		@ frame_needed = 0, uses_anonymous_args = 0
 639              		@ link register save eliminated.
 640 0000 014B     		ldr	r3, .L121
 641 0002 D869     		ldr	r0, [r3, #28]
 642 0004 7047     		bx	lr
 643              	.L122:
 644 0006 00BF     		.align	2
 645              	.L121:
 646 0008 00000000 		.word	pFlash
 648              		.section	.text.FLASH_WaitForLastOperation,"ax",%progbits
 649              		.align	1
ARM GAS  /tmp/ccEsarEx.s 			page 12


 650              		.p2align 2,,3
 651              		.global	FLASH_WaitForLastOperation
 652              		.syntax unified
 653              		.thumb
 654              		.thumb_func
 655              		.fpu softvfp
 657              	FLASH_WaitForLastOperation:
 658              		@ args = 0, pretend = 0, frame = 0
 659              		@ frame_needed = 0, uses_anonymous_args = 0
 660 0000 70B5     		push	{r4, r5, r6, lr}
 661 0002 0446     		mov	r4, r0
 662 0004 FFF7FEFF 		bl	HAL_GetTick
 663 0008 0546     		mov	r5, r0
 664 000a 264E     		ldr	r6, .L151
 665              	.L124:
 666 000c 601C     		adds	r0, r4, #1
 667 000e 36D1     		bne	.L128
 668 0010 244A     		ldr	r2, .L151
 669              	.L129:
 670 0012 D368     		ldr	r3, [r2, #12]
 671 0014 D907     		lsls	r1, r3, #31
 672 0016 FCD4     		bmi	.L129
 673              	.L130:
 674 0018 224B     		ldr	r3, .L151
 675 001a DA68     		ldr	r2, [r3, #12]
 676 001c 9606     		lsls	r6, r2, #26
 677 001e 44BF     		itt	mi
 678 0020 2022     		movmi	r2, #32
 679 0022 DA60     		strmi	r2, [r3, #12]
 680 0024 1F4B     		ldr	r3, .L151
 681 0026 DA68     		ldr	r2, [r3, #12]
 682 0028 D506     		lsls	r5, r2, #27
 683 002a 07D4     		bmi	.L133
 684 002c DA69     		ldr	r2, [r3, #28]
 685 002e D407     		lsls	r4, r2, #31
 686 0030 04D4     		bmi	.L133
 687 0032 D868     		ldr	r0, [r3, #12]
 688 0034 10F00400 		ands	r0, r0, #4
 689 0038 00D1     		bne	.L133
 690 003a 70BD     		pop	{r4, r5, r6, pc}
 691              	.L133:
 692 003c 194B     		ldr	r3, .L151
 693 003e DB68     		ldr	r3, [r3, #12]
 694 0040 13F01003 		ands	r3, r3, #16
 695 0044 26D1     		bne	.L150
 696 0046 0421     		movs	r1, #4
 697              	.L134:
 698 0048 164A     		ldr	r2, .L151
 699 004a D268     		ldr	r2, [r2, #12]
 700 004c 5007     		lsls	r0, r2, #29
 701 004e 05D5     		bpl	.L135
 702 0050 0B46     		mov	r3, r1
 703 0052 1549     		ldr	r1, .L151+4
 704 0054 CA69     		ldr	r2, [r1, #28]
 705 0056 42F00102 		orr	r2, r2, #1
 706 005a CA61     		str	r2, [r1, #28]
 707              	.L135:
ARM GAS  /tmp/ccEsarEx.s 			page 13


 708 005c 114A     		ldr	r2, .L151
 709 005e D169     		ldr	r1, [r2, #28]
 710 0060 C907     		lsls	r1, r1, #31
 711 0062 08D5     		bpl	.L136
 712 0064 1048     		ldr	r0, .L151+4
 713 0066 C169     		ldr	r1, [r0, #28]
 714 0068 41F00401 		orr	r1, r1, #4
 715 006c C161     		str	r1, [r0, #28]
 716 006e D169     		ldr	r1, [r2, #28]
 717 0070 21F00101 		bic	r1, r1, #1
 718 0074 D161     		str	r1, [r2, #28]
 719              	.L136:
 720 0076 0B4A     		ldr	r2, .L151
 721 0078 0120     		movs	r0, #1
 722 007a D360     		str	r3, [r2, #12]
 723 007c 70BD     		pop	{r4, r5, r6, pc}
 724              	.L128:
 725 007e F368     		ldr	r3, [r6, #12]
 726 0080 DB07     		lsls	r3, r3, #31
 727 0082 C9D5     		bpl	.L130
 728 0084 24B1     		cbz	r4, .L127
 729 0086 FFF7FEFF 		bl	HAL_GetTick
 730 008a 401B     		subs	r0, r0, r5
 731 008c A042     		cmp	r0, r4
 732 008e BDD9     		bls	.L124
 733              	.L127:
 734 0090 0320     		movs	r0, #3
 735 0092 70BD     		pop	{r4, r5, r6, pc}
 736              	.L150:
 737 0094 0448     		ldr	r0, .L151+4
 738 0096 1421     		movs	r1, #20
 739 0098 C269     		ldr	r2, [r0, #28]
 740 009a 1023     		movs	r3, #16
 741 009c 42F00202 		orr	r2, r2, #2
 742 00a0 C261     		str	r2, [r0, #28]
 743 00a2 D1E7     		b	.L134
 744              	.L152:
 745              		.align	2
 746              	.L151:
 747 00a4 00200240 		.word	1073881088
 748 00a8 00000000 		.word	pFlash
 750              		.comm	pFlash,32,8
 751              		.ident	"GCC: (15:9-2019-q4-0ubuntu1) 9.2.1 20191025 (release) [ARM/arm-9-branch revision 277599]"
ARM GAS  /tmp/ccEsarEx.s 			page 14

