ARM GAS  /tmp/cc4QaNiq.s 			page 1


   1              		.cpu cortex-m3
   2              		.eabi_attribute 20, 1
   3              		.eabi_attribute 21, 1
   4              		.eabi_attribute 23, 3
   5              		.eabi_attribute 24, 1
   6              		.eabi_attribute 25, 1
   7              		.eabi_attribute 26, 1
   8              		.eabi_attribute 30, 2
   9              		.eabi_attribute 34, 1
  10              		.eabi_attribute 18, 4
  11              		.file	"stm32f1xx_hal_cortex.c"
  12              		.text
  13              		.section	.text.HAL_NVIC_SetPriorityGrouping,"ax",%progbits
  14              		.align	1
  15              		.p2align 2,,3
  16              		.global	HAL_NVIC_SetPriorityGrouping
  17              		.arch armv7-m
  18              		.syntax unified
  19              		.thumb
  20              		.thumb_func
  21              		.fpu softvfp
  23              	HAL_NVIC_SetPriorityGrouping:
  24              		@ args = 0, pretend = 0, frame = 0
  25              		@ frame_needed = 0, uses_anonymous_args = 0
  26              		@ link register save eliminated.
  27 0000 4FF6FF01 		movw	r1, #63743
  28 0004 064A     		ldr	r2, .L3
  29 0006 0302     		lsls	r3, r0, #8
  30 0008 D068     		ldr	r0, [r2, #12]
  31 000a 03F4E063 		and	r3, r3, #1792
  32 000e 0840     		ands	r0, r0, r1
  33 0010 0343     		orrs	r3, r3, r0
  34 0012 43F0BF63 		orr	r3, r3, #100139008
  35 0016 43F40033 		orr	r3, r3, #131072
  36 001a D360     		str	r3, [r2, #12]
  37 001c 7047     		bx	lr
  38              	.L4:
  39 001e 00BF     		.align	2
  40              	.L3:
  41 0020 00ED00E0 		.word	-536810240
  43              		.section	.text.HAL_NVIC_SetPriority,"ax",%progbits
  44              		.align	1
  45              		.p2align 2,,3
  46              		.global	HAL_NVIC_SetPriority
  47              		.syntax unified
  48              		.thumb
  49              		.thumb_func
  50              		.fpu softvfp
  52              	HAL_NVIC_SetPriority:
  53              		@ args = 0, pretend = 0, frame = 0
  54              		@ frame_needed = 0, uses_anonymous_args = 0
  55              		@ link register save eliminated.
  56 0000 194B     		ldr	r3, .L11
  57 0002 30B4     		push	{r4, r5}
  58 0004 DB68     		ldr	r3, [r3, #12]
  59 0006 C3F30223 		ubfx	r3, r3, #8, #3
  60 000a C3F10705 		rsb	r5, r3, #7
ARM GAS  /tmp/cc4QaNiq.s 			page 2


  61 000e 042D     		cmp	r5, #4
  62 0010 03F10404 		add	r4, r3, #4
  63 0014 28BF     		it	cs
  64 0016 0425     		movcs	r5, #4
  65 0018 062C     		cmp	r4, #6
  66 001a 19D9     		bls	.L9
  67 001c 4FF0FF34 		mov	r4, #-1
  68 0020 033B     		subs	r3, r3, #3
  69 0022 9C40     		lsls	r4, r4, r3
  70 0024 22EA0402 		bic	r2, r2, r4
  71              	.L6:
  72 0028 4FF0FF34 		mov	r4, #-1
  73 002c AC40     		lsls	r4, r4, r5
  74 002e 21EA0401 		bic	r1, r1, r4
  75 0032 9940     		lsls	r1, r1, r3
  76 0034 0028     		cmp	r0, #0
  77 0036 41EA0201 		orr	r1, r1, r2
  78 003a 0CDB     		blt	.L7
  79 003c 0901     		lsls	r1, r1, #4
  80 003e 00F16040 		add	r0, r0, #-536870912
  81 0042 C9B2     		uxtb	r1, r1
  82 0044 00F56140 		add	r0, r0, #57600
  83 0048 80F80013 		strb	r1, [r0, #768]
  84 004c 30BC     		pop	{r4, r5}
  85 004e 7047     		bx	lr
  86              	.L9:
  87 0050 0022     		movs	r2, #0
  88 0052 1346     		mov	r3, r2
  89 0054 E8E7     		b	.L6
  90              	.L7:
  91 0056 054B     		ldr	r3, .L11+4
  92 0058 00F00F00 		and	r0, r0, #15
  93 005c 0901     		lsls	r1, r1, #4
  94 005e C9B2     		uxtb	r1, r1
  95 0060 0344     		add	r3, r3, r0
  96 0062 1976     		strb	r1, [r3, #24]
  97 0064 30BC     		pop	{r4, r5}
  98 0066 7047     		bx	lr
  99              	.L12:
 100              		.align	2
 101              	.L11:
 102 0068 00ED00E0 		.word	-536810240
 103 006c FCEC00E0 		.word	-536810244
 105              		.section	.text.HAL_NVIC_EnableIRQ,"ax",%progbits
 106              		.align	1
 107              		.p2align 2,,3
 108              		.global	HAL_NVIC_EnableIRQ
 109              		.syntax unified
 110              		.thumb
 111              		.thumb_func
 112              		.fpu softvfp
 114              	HAL_NVIC_EnableIRQ:
 115              		@ args = 0, pretend = 0, frame = 0
 116              		@ frame_needed = 0, uses_anonymous_args = 0
 117              		@ link register save eliminated.
 118 0000 0028     		cmp	r0, #0
 119 0002 07DB     		blt	.L13
ARM GAS  /tmp/cc4QaNiq.s 			page 3


 120 0004 0123     		movs	r3, #1
 121 0006 00F01F01 		and	r1, r0, #31
 122 000a 034A     		ldr	r2, .L15
 123 000c 8B40     		lsls	r3, r3, r1
 124 000e 4009     		lsrs	r0, r0, #5
 125 0010 42F82030 		str	r3, [r2, r0, lsl #2]
 126              	.L13:
 127 0014 7047     		bx	lr
 128              	.L16:
 129 0016 00BF     		.align	2
 130              	.L15:
 131 0018 00E100E0 		.word	-536813312
 133              		.section	.text.HAL_NVIC_DisableIRQ,"ax",%progbits
 134              		.align	1
 135              		.p2align 2,,3
 136              		.global	HAL_NVIC_DisableIRQ
 137              		.syntax unified
 138              		.thumb
 139              		.thumb_func
 140              		.fpu softvfp
 142              	HAL_NVIC_DisableIRQ:
 143              		@ args = 0, pretend = 0, frame = 0
 144              		@ frame_needed = 0, uses_anonymous_args = 0
 145              		@ link register save eliminated.
 146 0000 0028     		cmp	r0, #0
 147 0002 0CDB     		blt	.L17
 148 0004 0123     		movs	r3, #1
 149 0006 00F01F01 		and	r1, r0, #31
 150 000a 054A     		ldr	r2, .L19
 151 000c 4009     		lsrs	r0, r0, #5
 152 000e 8B40     		lsls	r3, r3, r1
 153 0010 2030     		adds	r0, r0, #32
 154 0012 42F82030 		str	r3, [r2, r0, lsl #2]
 155              		.syntax unified
 156              	@ 879 "Drivers/CMSIS/Include/cmsis_gcc.h" 1
 157 0016 BFF34F8F 		dsb 0xF
 158              	@ 0 "" 2
 159              	@ 868 "Drivers/CMSIS/Include/cmsis_gcc.h" 1
 160 001a BFF36F8F 		isb 0xF
 161              	@ 0 "" 2
 162              		.thumb
 163              		.syntax unified
 164              	.L17:
 165 001e 7047     		bx	lr
 166              	.L20:
 167              		.align	2
 168              	.L19:
 169 0020 00E100E0 		.word	-536813312
 171              		.section	.text.HAL_NVIC_SystemReset,"ax",%progbits
 172              		.align	1
 173              		.p2align 2,,3
 174              		.global	HAL_NVIC_SystemReset
 175              		.syntax unified
 176              		.thumb
 177              		.thumb_func
 178              		.fpu softvfp
 180              	HAL_NVIC_SystemReset:
ARM GAS  /tmp/cc4QaNiq.s 			page 4


 181              		@ Volatile: function does not return.
 182              		@ args = 0, pretend = 0, frame = 0
 183              		@ frame_needed = 0, uses_anonymous_args = 0
 184              		@ link register save eliminated.
 185              		.syntax unified
 186              	@ 879 "Drivers/CMSIS/Include/cmsis_gcc.h" 1
 187 0000 BFF34F8F 		dsb 0xF
 188              	@ 0 "" 2
 189              		.thumb
 190              		.syntax unified
 191 0004 0549     		ldr	r1, .L23
 192 0006 064B     		ldr	r3, .L23+4
 193 0008 CA68     		ldr	r2, [r1, #12]
 194 000a 02F4E062 		and	r2, r2, #1792
 195 000e 1343     		orrs	r3, r3, r2
 196 0010 CB60     		str	r3, [r1, #12]
 197              		.syntax unified
 198              	@ 879 "Drivers/CMSIS/Include/cmsis_gcc.h" 1
 199 0012 BFF34F8F 		dsb 0xF
 200              	@ 0 "" 2
 201              		.thumb
 202              		.syntax unified
 203              	.L22:
 204              		.syntax unified
 205              	@ 1773 "Drivers/CMSIS/Include/core_cm3.h" 1
 206 0016 00BF     		nop
 207              	@ 0 "" 2
 208              		.thumb
 209              		.syntax unified
 210 0018 FDE7     		b	.L22
 211              	.L24:
 212 001a 00BF     		.align	2
 213              	.L23:
 214 001c 00ED00E0 		.word	-536810240
 215 0020 0400FA05 		.word	100270084
 217              		.section	.text.HAL_SYSTICK_Config,"ax",%progbits
 218              		.align	1
 219              		.p2align 2,,3
 220              		.global	HAL_SYSTICK_Config
 221              		.syntax unified
 222              		.thumb
 223              		.thumb_func
 224              		.fpu softvfp
 226              	HAL_SYSTICK_Config:
 227              		@ args = 0, pretend = 0, frame = 0
 228              		@ frame_needed = 0, uses_anonymous_args = 0
 229              		@ link register save eliminated.
 230 0000 0138     		subs	r0, r0, #1
 231 0002 B0F1807F 		cmp	r0, #16777216
 232 0006 0DD2     		bcs	.L27
 233 0008 30B4     		push	{r4, r5}
 234 000a F025     		movs	r5, #240
 235 000c 0022     		movs	r2, #0
 236 000e 0721     		movs	r1, #7
 237 0010 054B     		ldr	r3, .L32
 238 0012 064C     		ldr	r4, .L32+4
 239 0014 5860     		str	r0, [r3, #4]
ARM GAS  /tmp/cc4QaNiq.s 			page 5


 240 0016 84F82350 		strb	r5, [r4, #35]
 241 001a 1046     		mov	r0, r2
 242 001c 30BC     		pop	{r4, r5}
 243 001e 9A60     		str	r2, [r3, #8]
 244 0020 1960     		str	r1, [r3]
 245 0022 7047     		bx	lr
 246              	.L27:
 247 0024 0120     		movs	r0, #1
 248 0026 7047     		bx	lr
 249              	.L33:
 250              		.align	2
 251              	.L32:
 252 0028 10E000E0 		.word	-536813552
 253 002c 00ED00E0 		.word	-536810240
 255              		.section	.text.HAL_NVIC_GetPriorityGrouping,"ax",%progbits
 256              		.align	1
 257              		.p2align 2,,3
 258              		.global	HAL_NVIC_GetPriorityGrouping
 259              		.syntax unified
 260              		.thumb
 261              		.thumb_func
 262              		.fpu softvfp
 264              	HAL_NVIC_GetPriorityGrouping:
 265              		@ args = 0, pretend = 0, frame = 0
 266              		@ frame_needed = 0, uses_anonymous_args = 0
 267              		@ link register save eliminated.
 268 0000 024B     		ldr	r3, .L35
 269 0002 D868     		ldr	r0, [r3, #12]
 270 0004 C0F30220 		ubfx	r0, r0, #8, #3
 271 0008 7047     		bx	lr
 272              	.L36:
 273 000a 00BF     		.align	2
 274              	.L35:
 275 000c 00ED00E0 		.word	-536810240
 277              		.section	.text.HAL_NVIC_GetPriority,"ax",%progbits
 278              		.align	1
 279              		.p2align 2,,3
 280              		.global	HAL_NVIC_GetPriority
 281              		.syntax unified
 282              		.thumb
 283              		.thumb_func
 284              		.fpu softvfp
 286              	HAL_NVIC_GetPriority:
 287              		@ args = 0, pretend = 0, frame = 0
 288              		@ frame_needed = 0, uses_anonymous_args = 0
 289              		@ link register save eliminated.
 290 0000 0028     		cmp	r0, #0
 291 0002 30B4     		push	{r4, r5}
 292 0004 23DB     		blt	.L38
 293 0006 00F16040 		add	r0, r0, #-536870912
 294 000a 00F56140 		add	r0, r0, #57600
 295 000e 90F80003 		ldrb	r0, [r0, #768]	@ zero_extendqisi2
 296 0012 0009     		lsrs	r0, r0, #4
 297              	.L39:
 298 0014 01F00701 		and	r1, r1, #7
 299 0018 C1F10705 		rsb	r5, r1, #7
 300 001c 042D     		cmp	r5, #4
ARM GAS  /tmp/cc4QaNiq.s 			page 6


 301 001e 01F10404 		add	r4, r1, #4
 302 0022 28BF     		it	cs
 303 0024 0425     		movcs	r5, #4
 304 0026 062C     		cmp	r4, #6
 305 0028 0FD9     		bls	.L41
 306 002a 4FF0FF34 		mov	r4, #-1
 307 002e 0339     		subs	r1, r1, #3
 308 0030 8C40     		lsls	r4, r4, r1
 309 0032 20EA0404 		bic	r4, r0, r4
 310 0036 C840     		lsrs	r0, r0, r1
 311              	.L40:
 312 0038 4FF0FF31 		mov	r1, #-1
 313 003c A940     		lsls	r1, r1, r5
 314 003e 20EA0100 		bic	r0, r0, r1
 315 0042 1060     		str	r0, [r2]
 316 0044 1C60     		str	r4, [r3]
 317 0046 30BC     		pop	{r4, r5}
 318 0048 7047     		bx	lr
 319              	.L41:
 320 004a 0024     		movs	r4, #0
 321 004c F4E7     		b	.L40
 322              	.L38:
 323 004e 034C     		ldr	r4, .L43
 324 0050 00F00F00 		and	r0, r0, #15
 325 0054 0444     		add	r4, r4, r0
 326 0056 207E     		ldrb	r0, [r4, #24]	@ zero_extendqisi2
 327 0058 0009     		lsrs	r0, r0, #4
 328 005a DBE7     		b	.L39
 329              	.L44:
 330              		.align	2
 331              	.L43:
 332 005c FCEC00E0 		.word	-536810244
 334              		.section	.text.HAL_NVIC_SetPendingIRQ,"ax",%progbits
 335              		.align	1
 336              		.p2align 2,,3
 337              		.global	HAL_NVIC_SetPendingIRQ
 338              		.syntax unified
 339              		.thumb
 340              		.thumb_func
 341              		.fpu softvfp
 343              	HAL_NVIC_SetPendingIRQ:
 344              		@ args = 0, pretend = 0, frame = 0
 345              		@ frame_needed = 0, uses_anonymous_args = 0
 346              		@ link register save eliminated.
 347 0000 0028     		cmp	r0, #0
 348 0002 08DB     		blt	.L45
 349 0004 0123     		movs	r3, #1
 350 0006 00F01F01 		and	r1, r0, #31
 351 000a 034A     		ldr	r2, .L47
 352 000c 4009     		lsrs	r0, r0, #5
 353 000e 8B40     		lsls	r3, r3, r1
 354 0010 4030     		adds	r0, r0, #64
 355 0012 42F82030 		str	r3, [r2, r0, lsl #2]
 356              	.L45:
 357 0016 7047     		bx	lr
 358              	.L48:
 359              		.align	2
ARM GAS  /tmp/cc4QaNiq.s 			page 7


 360              	.L47:
 361 0018 00E100E0 		.word	-536813312
 363              		.section	.text.HAL_NVIC_GetPendingIRQ,"ax",%progbits
 364              		.align	1
 365              		.p2align 2,,3
 366              		.global	HAL_NVIC_GetPendingIRQ
 367              		.syntax unified
 368              		.thumb
 369              		.thumb_func
 370              		.fpu softvfp
 372              	HAL_NVIC_GetPendingIRQ:
 373              		@ args = 0, pretend = 0, frame = 0
 374              		@ frame_needed = 0, uses_anonymous_args = 0
 375              		@ link register save eliminated.
 376 0000 0028     		cmp	r0, #0
 377 0002 0BDB     		blt	.L51
 378 0004 064A     		ldr	r2, .L52
 379 0006 4309     		lsrs	r3, r0, #5
 380 0008 4033     		adds	r3, r3, #64
 381 000a 52F82330 		ldr	r3, [r2, r3, lsl #2]
 382 000e 00F01F00 		and	r0, r0, #31
 383 0012 23FA00F0 		lsr	r0, r3, r0
 384 0016 00F00100 		and	r0, r0, #1
 385 001a 7047     		bx	lr
 386              	.L51:
 387 001c 0020     		movs	r0, #0
 388 001e 7047     		bx	lr
 389              	.L53:
 390              		.align	2
 391              	.L52:
 392 0020 00E100E0 		.word	-536813312
 394              		.section	.text.HAL_NVIC_ClearPendingIRQ,"ax",%progbits
 395              		.align	1
 396              		.p2align 2,,3
 397              		.global	HAL_NVIC_ClearPendingIRQ
 398              		.syntax unified
 399              		.thumb
 400              		.thumb_func
 401              		.fpu softvfp
 403              	HAL_NVIC_ClearPendingIRQ:
 404              		@ args = 0, pretend = 0, frame = 0
 405              		@ frame_needed = 0, uses_anonymous_args = 0
 406              		@ link register save eliminated.
 407 0000 0028     		cmp	r0, #0
 408 0002 08DB     		blt	.L54
 409 0004 0123     		movs	r3, #1
 410 0006 00F01F01 		and	r1, r0, #31
 411 000a 034A     		ldr	r2, .L56
 412 000c 4009     		lsrs	r0, r0, #5
 413 000e 8B40     		lsls	r3, r3, r1
 414 0010 6030     		adds	r0, r0, #96
 415 0012 42F82030 		str	r3, [r2, r0, lsl #2]
 416              	.L54:
 417 0016 7047     		bx	lr
 418              	.L57:
 419              		.align	2
 420              	.L56:
ARM GAS  /tmp/cc4QaNiq.s 			page 8


 421 0018 00E100E0 		.word	-536813312
 423              		.section	.text.HAL_NVIC_GetActive,"ax",%progbits
 424              		.align	1
 425              		.p2align 2,,3
 426              		.global	HAL_NVIC_GetActive
 427              		.syntax unified
 428              		.thumb
 429              		.thumb_func
 430              		.fpu softvfp
 432              	HAL_NVIC_GetActive:
 433              		@ args = 0, pretend = 0, frame = 0
 434              		@ frame_needed = 0, uses_anonymous_args = 0
 435              		@ link register save eliminated.
 436 0000 0028     		cmp	r0, #0
 437 0002 0BDB     		blt	.L60
 438 0004 064A     		ldr	r2, .L61
 439 0006 4309     		lsrs	r3, r0, #5
 440 0008 8033     		adds	r3, r3, #128
 441 000a 52F82330 		ldr	r3, [r2, r3, lsl #2]
 442 000e 00F01F00 		and	r0, r0, #31
 443 0012 23FA00F0 		lsr	r0, r3, r0
 444 0016 00F00100 		and	r0, r0, #1
 445 001a 7047     		bx	lr
 446              	.L60:
 447 001c 0020     		movs	r0, #0
 448 001e 7047     		bx	lr
 449              	.L62:
 450              		.align	2
 451              	.L61:
 452 0020 00E100E0 		.word	-536813312
 454              		.section	.text.HAL_SYSTICK_CLKSourceConfig,"ax",%progbits
 455              		.align	1
 456              		.p2align 2,,3
 457              		.global	HAL_SYSTICK_CLKSourceConfig
 458              		.syntax unified
 459              		.thumb
 460              		.thumb_func
 461              		.fpu softvfp
 463              	HAL_SYSTICK_CLKSourceConfig:
 464              		@ args = 0, pretend = 0, frame = 0
 465              		@ frame_needed = 0, uses_anonymous_args = 0
 466              		@ link register save eliminated.
 467 0000 044A     		ldr	r2, .L66
 468 0002 0428     		cmp	r0, #4
 469 0004 1368     		ldr	r3, [r2]
 470 0006 0CBF     		ite	eq
 471 0008 43F00403 		orreq	r3, r3, #4
 472 000c 23F00403 		bicne	r3, r3, #4
 473 0010 1360     		str	r3, [r2]
 474 0012 7047     		bx	lr
 475              	.L67:
 476              		.align	2
 477              	.L66:
 478 0014 10E000E0 		.word	-536813552
 480              		.section	.text.HAL_SYSTICK_Callback,"ax",%progbits
 481              		.align	1
 482              		.p2align 2,,3
ARM GAS  /tmp/cc4QaNiq.s 			page 9


 483              		.weak	HAL_SYSTICK_Callback
 484              		.syntax unified
 485              		.thumb
 486              		.thumb_func
 487              		.fpu softvfp
 489              	HAL_SYSTICK_Callback:
 490              		@ args = 0, pretend = 0, frame = 0
 491              		@ frame_needed = 0, uses_anonymous_args = 0
 492              		@ link register save eliminated.
 493 0000 7047     		bx	lr
 495 0002 00BF     		.section	.text.HAL_SYSTICK_IRQHandler,"ax",%progbits
 496              		.align	1
 497              		.p2align 2,,3
 498              		.global	HAL_SYSTICK_IRQHandler
 499              		.syntax unified
 500              		.thumb
 501              		.thumb_func
 502              		.fpu softvfp
 504              	HAL_SYSTICK_IRQHandler:
 505              		@ args = 0, pretend = 0, frame = 0
 506              		@ frame_needed = 0, uses_anonymous_args = 0
 507 0000 08B5     		push	{r3, lr}
 508 0002 FFF7FEFF 		bl	HAL_SYSTICK_Callback
 509 0006 08BD     		pop	{r3, pc}
 511              		.ident	"GCC: (15:9-2019-q4-0ubuntu1) 9.2.1 20191025 (release) [ARM/arm-9-branch revision 277599]"
ARM GAS  /tmp/cc4QaNiq.s 			page 10

