ARM GAS  /tmp/ccOb5QIf.s 			page 1


   1              		.cpu cortex-m3
   2              		.eabi_attribute 20, 1
   3              		.eabi_attribute 21, 1
   4              		.eabi_attribute 23, 3
   5              		.eabi_attribute 24, 1
   6              		.eabi_attribute 25, 1
   7              		.eabi_attribute 26, 1
   8              		.eabi_attribute 30, 1
   9              		.eabi_attribute 34, 1
  10              		.eabi_attribute 18, 4
  11              		.file	"system_stm32f1xx.c"
  12              		.text
  13              		.section	.text.SystemInit,"ax",%progbits
  14              		.align	1
  15              		.global	SystemInit
  16              		.arch armv7-m
  17              		.syntax unified
  18              		.thumb
  19              		.thumb_func
  20              		.fpu softvfp
  22              	SystemInit:
  23              		@ args = 0, pretend = 0, frame = 0
  24              		@ frame_needed = 0, uses_anonymous_args = 0
  25              		@ link register save eliminated.
  26 0000 7047     		bx	lr
  28              		.section	.text.SystemCoreClockUpdate,"ax",%progbits
  29              		.align	1
  30              		.global	SystemCoreClockUpdate
  31              		.syntax unified
  32              		.thumb
  33              		.thumb_func
  34              		.fpu softvfp
  36              	SystemCoreClockUpdate:
  37              		@ args = 0, pretend = 0, frame = 0
  38              		@ frame_needed = 0, uses_anonymous_args = 0
  39              		@ link register save eliminated.
  40 0000 1F4B     		ldr	r3, .L10
  41 0002 5B68     		ldr	r3, [r3, #4]
  42 0004 03F00C03 		and	r3, r3, #12
  43 0008 042B     		cmp	r3, #4
  44 000a 14D0     		beq	.L3
  45 000c 082B     		cmp	r3, #8
  46 000e 16D0     		beq	.L4
  47 0010 1BB1     		cbz	r3, .L9
  48 0012 1C4B     		ldr	r3, .L10+4
  49 0014 1C4A     		ldr	r2, .L10+8
  50 0016 1A60     		str	r2, [r3]
  51 0018 02E0     		b	.L6
  52              	.L9:
  53 001a 1A4B     		ldr	r3, .L10+4
  54 001c 1A4A     		ldr	r2, .L10+8
  55 001e 1A60     		str	r2, [r3]
  56              	.L6:
  57 0020 174B     		ldr	r3, .L10
  58 0022 5B68     		ldr	r3, [r3, #4]
  59 0024 C3F30313 		ubfx	r3, r3, #4, #4
  60 0028 184A     		ldr	r2, .L10+12
ARM GAS  /tmp/ccOb5QIf.s 			page 2


  61 002a D15C     		ldrb	r1, [r2, r3]	@ zero_extendqisi2
  62 002c 154A     		ldr	r2, .L10+4
  63 002e 1368     		ldr	r3, [r2]
  64 0030 CB40     		lsrs	r3, r3, r1
  65 0032 1360     		str	r3, [r2]
  66 0034 7047     		bx	lr
  67              	.L3:
  68 0036 134B     		ldr	r3, .L10+4
  69 0038 134A     		ldr	r2, .L10+8
  70 003a 1A60     		str	r2, [r3]
  71 003c F0E7     		b	.L6
  72              	.L4:
  73 003e 104A     		ldr	r2, .L10
  74 0040 5368     		ldr	r3, [r2, #4]
  75 0042 5268     		ldr	r2, [r2, #4]
  76 0044 C3F38343 		ubfx	r3, r3, #18, #4
  77 0048 0233     		adds	r3, r3, #2
  78 004a 12F4803F 		tst	r2, #65536
  79 004e 05D1     		bne	.L7
  80 0050 0F4A     		ldr	r2, .L10+16
  81 0052 02FB03F3 		mul	r3, r2, r3
  82 0056 0B4A     		ldr	r2, .L10+4
  83 0058 1360     		str	r3, [r2]
  84 005a E1E7     		b	.L6
  85              	.L7:
  86 005c 084A     		ldr	r2, .L10
  87 005e 5268     		ldr	r2, [r2, #4]
  88 0060 12F4003F 		tst	r2, #131072
  89 0064 05D0     		beq	.L8
  90 0066 0A4A     		ldr	r2, .L10+16
  91 0068 02FB03F3 		mul	r3, r2, r3
  92 006c 054A     		ldr	r2, .L10+4
  93 006e 1360     		str	r3, [r2]
  94 0070 D6E7     		b	.L6
  95              	.L8:
  96 0072 054A     		ldr	r2, .L10+8
  97 0074 02FB03F3 		mul	r3, r2, r3
  98 0078 024A     		ldr	r2, .L10+4
  99 007a 1360     		str	r3, [r2]
 100 007c D0E7     		b	.L6
 101              	.L11:
 102 007e 00BF     		.align	2
 103              	.L10:
 104 0080 00100240 		.word	1073876992
 105 0084 00000000 		.word	.LANCHOR0
 106 0088 00127A00 		.word	8000000
 107 008c 00000000 		.word	.LANCHOR1
 108 0090 00093D00 		.word	4000000
 110              		.global	APBPrescTable
 111              		.global	AHBPrescTable
 112              		.global	SystemCoreClock
 113              		.section	.data.SystemCoreClock,"aw"
 114              		.align	2
 115              		.set	.LANCHOR0,. + 0
 118              	SystemCoreClock:
 119 0000 0024F400 		.word	16000000
 120              		.section	.rodata.AHBPrescTable,"a"
ARM GAS  /tmp/ccOb5QIf.s 			page 3


 121              		.align	2
 122              		.set	.LANCHOR1,. + 0
 125              	AHBPrescTable:
 126 0000 00000000 		.ascii	"\000\000\000\000\000\000\000\000\001\002\003\004\006"
 126      00000000 
 126      01020304 
 126      06
 127 000d 070809   		.ascii	"\007\010\011"
 128              		.section	.rodata.APBPrescTable,"a"
 129              		.align	2
 132              	APBPrescTable:
 133 0000 00000000 		.ascii	"\000\000\000\000\001\002\003\004"
 133      01020304 
 134              		.ident	"GCC: (15:9-2019-q4-0ubuntu1) 9.2.1 20191025 (release) [ARM/arm-9-branch revision 277599]"
ARM GAS  /tmp/ccOb5QIf.s 			page 4


DEFINED SYMBOLS
                            *ABS*:0000000000000000 system_stm32f1xx.c
     /tmp/ccOb5QIf.s:14     .text.SystemInit:0000000000000000 $t
     /tmp/ccOb5QIf.s:22     .text.SystemInit:0000000000000000 SystemInit
     /tmp/ccOb5QIf.s:29     .text.SystemCoreClockUpdate:0000000000000000 $t
     /tmp/ccOb5QIf.s:36     .text.SystemCoreClockUpdate:0000000000000000 SystemCoreClockUpdate
     /tmp/ccOb5QIf.s:104    .text.SystemCoreClockUpdate:0000000000000080 $d
     /tmp/ccOb5QIf.s:132    .rodata.APBPrescTable:0000000000000000 APBPrescTable
     /tmp/ccOb5QIf.s:125    .rodata.AHBPrescTable:0000000000000000 AHBPrescTable
     /tmp/ccOb5QIf.s:118    .data.SystemCoreClock:0000000000000000 SystemCoreClock
     /tmp/ccOb5QIf.s:114    .data.SystemCoreClock:0000000000000000 $d
     /tmp/ccOb5QIf.s:121    .rodata.AHBPrescTable:0000000000000000 $d
     /tmp/ccOb5QIf.s:129    .rodata.APBPrescTable:0000000000000000 $d

NO UNDEFINED SYMBOLS
